
RFM95-STM32_HAL.elf:     file format elf32-littlearm

Sections:
Idx Name          Size      VMA       LMA       File off  Algn
  0 .isr_vector   0000010c  08000000  08000000  00010000  2**0
                  CONTENTS, ALLOC, LOAD, READONLY, DATA
  1 .text         00002360  08000110  08000110  00010110  2**3
                  CONTENTS, ALLOC, LOAD, READONLY, CODE
  2 .rodata       00000034  08002470  08002470  00012470  2**0
                  CONTENTS, ALLOC, LOAD, READONLY, DATA
  3 .ARM.extab    00000000  080024a4  080024a4  00020014  2**0
                  CONTENTS
  4 .ARM          00000008  080024a4  080024a4  000124a4  2**2
                  CONTENTS, ALLOC, LOAD, READONLY, DATA
  5 .preinit_array 00000000  080024ac  080024ac  00020014  2**0
                  CONTENTS, ALLOC, LOAD, DATA
  6 .init_array   00000004  080024ac  080024ac  000124ac  2**2
                  CONTENTS, ALLOC, LOAD, DATA
  7 .fini_array   00000004  080024b0  080024b0  000124b0  2**2
                  CONTENTS, ALLOC, LOAD, DATA
  8 .data         00000014  20000000  080024b4  00020000  2**2
                  CONTENTS, ALLOC, LOAD, DATA
  9 .bss          000000a8  20000014  080024c8  00020014  2**2
                  ALLOC
 10 ._user_heap_stack 00000604  200000bc  080024c8  000200bc  2**0
                  ALLOC
 11 .ARM.attributes 00000029  00000000  00000000  00020014  2**0
                  CONTENTS, READONLY
 12 .comment      00000050  00000000  00000000  0002003d  2**0
                  CONTENTS, READONLY
 13 .debug_frame  000000ac  00000000  00000000  00020090  2**2
                  CONTENTS, READONLY, DEBUGGING, OCTETS

Disassembly of section .text:

08000110 <__do_global_dtors_aux>:
 8000110:	b510      	push	{r4, lr}
 8000112:	4c05      	ldr	r4, [pc, #20]	; (8000128 <__do_global_dtors_aux+0x18>)
 8000114:	7823      	ldrb	r3, [r4, #0]
 8000116:	b933      	cbnz	r3, 8000126 <__do_global_dtors_aux+0x16>
 8000118:	4b04      	ldr	r3, [pc, #16]	; (800012c <__do_global_dtors_aux+0x1c>)
 800011a:	b113      	cbz	r3, 8000122 <__do_global_dtors_aux+0x12>
 800011c:	4804      	ldr	r0, [pc, #16]	; (8000130 <__do_global_dtors_aux+0x20>)
 800011e:	f3af 8000 	nop.w
 8000122:	2301      	movs	r3, #1
 8000124:	7023      	strb	r3, [r4, #0]
 8000126:	bd10      	pop	{r4, pc}
 8000128:	20000014 	.word	0x20000014
 800012c:	00000000 	.word	0x00000000
 8000130:	08002458 	.word	0x08002458

08000134 <frame_dummy>:
 8000134:	b508      	push	{r3, lr}
 8000136:	4b03      	ldr	r3, [pc, #12]	; (8000144 <frame_dummy+0x10>)
 8000138:	b11b      	cbz	r3, 8000142 <frame_dummy+0xe>
 800013a:	4903      	ldr	r1, [pc, #12]	; (8000148 <frame_dummy+0x14>)
 800013c:	4803      	ldr	r0, [pc, #12]	; (800014c <frame_dummy+0x18>)
 800013e:	f3af 8000 	nop.w
 8000142:	bd08      	pop	{r3, pc}
 8000144:	00000000 	.word	0x00000000
 8000148:	20000018 	.word	0x20000018
 800014c:	08002458 	.word	0x08002458

08000150 <__aeabi_uldivmod>:
 8000150:	b953      	cbnz	r3, 8000168 <__aeabi_uldivmod+0x18>
 8000152:	b94a      	cbnz	r2, 8000168 <__aeabi_uldivmod+0x18>
 8000154:	2900      	cmp	r1, #0
 8000156:	bf08      	it	eq
 8000158:	2800      	cmpeq	r0, #0
 800015a:	bf1c      	itt	ne
 800015c:	f04f 31ff 	movne.w	r1, #4294967295
 8000160:	f04f 30ff 	movne.w	r0, #4294967295
 8000164:	f000 b976 	b.w	8000454 <__aeabi_idiv0>
 8000168:	f1ad 0c08 	sub.w	ip, sp, #8
 800016c:	e96d ce04 	strd	ip, lr, [sp, #-16]!
 8000170:	f000 f806 	bl	8000180 <__udivmoddi4>
 8000174:	f8dd e004 	ldr.w	lr, [sp, #4]
 8000178:	e9dd 2302 	ldrd	r2, r3, [sp, #8]
 800017c:	b004      	add	sp, #16
 800017e:	4770      	bx	lr

08000180 <__udivmoddi4>:
 8000180:	e92d 47f0 	stmdb	sp!, {r4, r5, r6, r7, r8, r9, sl, lr}
 8000184:	9e08      	ldr	r6, [sp, #32]
 8000186:	460d      	mov	r5, r1
 8000188:	4604      	mov	r4, r0
 800018a:	4688      	mov	r8, r1
 800018c:	2b00      	cmp	r3, #0
 800018e:	d14d      	bne.n	800022c <__udivmoddi4+0xac>
 8000190:	428a      	cmp	r2, r1
 8000192:	4694      	mov	ip, r2
 8000194:	d968      	bls.n	8000268 <__udivmoddi4+0xe8>
 8000196:	fab2 f282 	clz	r2, r2
 800019a:	b152      	cbz	r2, 80001b2 <__udivmoddi4+0x32>
 800019c:	fa01 f302 	lsl.w	r3, r1, r2
 80001a0:	f1c2 0120 	rsb	r1, r2, #32
 80001a4:	fa20 f101 	lsr.w	r1, r0, r1
 80001a8:	fa0c fc02 	lsl.w	ip, ip, r2
 80001ac:	ea41 0803 	orr.w	r8, r1, r3
 80001b0:	4094      	lsls	r4, r2
 80001b2:	ea4f 411c 	mov.w	r1, ip, lsr #16
 80001b6:	fbb8 f7f1 	udiv	r7, r8, r1
 80001ba:	fa1f fe8c 	uxth.w	lr, ip
 80001be:	fb01 8817 	mls	r8, r1, r7, r8
 80001c2:	fb07 f00e 	mul.w	r0, r7, lr
 80001c6:	0c23      	lsrs	r3, r4, #16
 80001c8:	ea43 4308 	orr.w	r3, r3, r8, lsl #16
 80001cc:	4298      	cmp	r0, r3
 80001ce:	d90a      	bls.n	80001e6 <__udivmoddi4+0x66>
 80001d0:	eb1c 0303 	adds.w	r3, ip, r3
 80001d4:	f107 35ff 	add.w	r5, r7, #4294967295
 80001d8:	f080 811e 	bcs.w	8000418 <__udivmoddi4+0x298>
 80001dc:	4298      	cmp	r0, r3
 80001de:	f240 811b 	bls.w	8000418 <__udivmoddi4+0x298>
 80001e2:	3f02      	subs	r7, #2
 80001e4:	4463      	add	r3, ip
 80001e6:	1a1b      	subs	r3, r3, r0
 80001e8:	fbb3 f0f1 	udiv	r0, r3, r1
 80001ec:	fb01 3310 	mls	r3, r1, r0, r3
 80001f0:	fb00 fe0e 	mul.w	lr, r0, lr
 80001f4:	b2a4      	uxth	r4, r4
 80001f6:	ea44 4403 	orr.w	r4, r4, r3, lsl #16
 80001fa:	45a6      	cmp	lr, r4
 80001fc:	d90a      	bls.n	8000214 <__udivmoddi4+0x94>
 80001fe:	eb1c 0404 	adds.w	r4, ip, r4
 8000202:	f100 33ff 	add.w	r3, r0, #4294967295
 8000206:	f080 8109 	bcs.w	800041c <__udivmoddi4+0x29c>
 800020a:	45a6      	cmp	lr, r4
 800020c:	f240 8106 	bls.w	800041c <__udivmoddi4+0x29c>
 8000210:	4464      	add	r4, ip
 8000212:	3802      	subs	r0, #2
 8000214:	2100      	movs	r1, #0
 8000216:	eba4 040e 	sub.w	r4, r4, lr
 800021a:	ea40 4007 	orr.w	r0, r0, r7, lsl #16
 800021e:	b11e      	cbz	r6, 8000228 <__udivmoddi4+0xa8>
 8000220:	2300      	movs	r3, #0
 8000222:	40d4      	lsrs	r4, r2
 8000224:	e9c6 4300 	strd	r4, r3, [r6]
 8000228:	e8bd 87f0 	ldmia.w	sp!, {r4, r5, r6, r7, r8, r9, sl, pc}
 800022c:	428b      	cmp	r3, r1
 800022e:	d908      	bls.n	8000242 <__udivmoddi4+0xc2>
 8000230:	2e00      	cmp	r6, #0
 8000232:	f000 80ee 	beq.w	8000412 <__udivmoddi4+0x292>
 8000236:	2100      	movs	r1, #0
 8000238:	e9c6 0500 	strd	r0, r5, [r6]
 800023c:	4608      	mov	r0, r1
 800023e:	e8bd 87f0 	ldmia.w	sp!, {r4, r5, r6, r7, r8, r9, sl, pc}
 8000242:	fab3 f183 	clz	r1, r3
 8000246:	2900      	cmp	r1, #0
 8000248:	d14a      	bne.n	80002e0 <__udivmoddi4+0x160>
 800024a:	42ab      	cmp	r3, r5
 800024c:	d302      	bcc.n	8000254 <__udivmoddi4+0xd4>
 800024e:	4282      	cmp	r2, r0
 8000250:	f200 80fc 	bhi.w	800044c <__udivmoddi4+0x2cc>
 8000254:	1a84      	subs	r4, r0, r2
 8000256:	eb65 0303 	sbc.w	r3, r5, r3
 800025a:	2001      	movs	r0, #1
 800025c:	4698      	mov	r8, r3
 800025e:	2e00      	cmp	r6, #0
 8000260:	d0e2      	beq.n	8000228 <__udivmoddi4+0xa8>
 8000262:	e9c6 4800 	strd	r4, r8, [r6]
 8000266:	e7df      	b.n	8000228 <__udivmoddi4+0xa8>
 8000268:	b902      	cbnz	r2, 800026c <__udivmoddi4+0xec>
 800026a:	deff      	udf	#255	; 0xff
 800026c:	fab2 f282 	clz	r2, r2
 8000270:	2a00      	cmp	r2, #0
 8000272:	f040 8091 	bne.w	8000398 <__udivmoddi4+0x218>
 8000276:	eba1 000c 	sub.w	r0, r1, ip
 800027a:	2101      	movs	r1, #1
 800027c:	ea4f 471c 	mov.w	r7, ip, lsr #16
 8000280:	fa1f fe8c 	uxth.w	lr, ip
 8000284:	fbb0 f3f7 	udiv	r3, r0, r7
 8000288:	fb07 0013 	mls	r0, r7, r3, r0
 800028c:	0c25      	lsrs	r5, r4, #16
 800028e:	ea45 4500 	orr.w	r5, r5, r0, lsl #16
 8000292:	fb0e f003 	mul.w	r0, lr, r3
 8000296:	42a8      	cmp	r0, r5
 8000298:	d908      	bls.n	80002ac <__udivmoddi4+0x12c>
 800029a:	eb1c 0505 	adds.w	r5, ip, r5
 800029e:	f103 38ff 	add.w	r8, r3, #4294967295
 80002a2:	d202      	bcs.n	80002aa <__udivmoddi4+0x12a>
 80002a4:	42a8      	cmp	r0, r5
 80002a6:	f200 80ce 	bhi.w	8000446 <__udivmoddi4+0x2c6>
 80002aa:	4643      	mov	r3, r8
 80002ac:	1a2d      	subs	r5, r5, r0
 80002ae:	fbb5 f0f7 	udiv	r0, r5, r7
 80002b2:	fb07 5510 	mls	r5, r7, r0, r5
 80002b6:	fb0e fe00 	mul.w	lr, lr, r0
 80002ba:	b2a4      	uxth	r4, r4
 80002bc:	ea44 4405 	orr.w	r4, r4, r5, lsl #16
 80002c0:	45a6      	cmp	lr, r4
 80002c2:	d908      	bls.n	80002d6 <__udivmoddi4+0x156>
 80002c4:	eb1c 0404 	adds.w	r4, ip, r4
 80002c8:	f100 35ff 	add.w	r5, r0, #4294967295
 80002cc:	d202      	bcs.n	80002d4 <__udivmoddi4+0x154>
 80002ce:	45a6      	cmp	lr, r4
 80002d0:	f200 80b6 	bhi.w	8000440 <__udivmoddi4+0x2c0>
 80002d4:	4628      	mov	r0, r5
 80002d6:	eba4 040e 	sub.w	r4, r4, lr
 80002da:	ea40 4003 	orr.w	r0, r0, r3, lsl #16
 80002de:	e79e      	b.n	800021e <__udivmoddi4+0x9e>
 80002e0:	f1c1 0720 	rsb	r7, r1, #32
 80002e4:	408b      	lsls	r3, r1
 80002e6:	fa22 fc07 	lsr.w	ip, r2, r7
 80002ea:	ea4c 0c03 	orr.w	ip, ip, r3
 80002ee:	fa25 fa07 	lsr.w	sl, r5, r7
 80002f2:	ea4f 491c 	mov.w	r9, ip, lsr #16
 80002f6:	fbba f8f9 	udiv	r8, sl, r9
 80002fa:	fa20 f307 	lsr.w	r3, r0, r7
 80002fe:	fb09 aa18 	mls	sl, r9, r8, sl
 8000302:	408d      	lsls	r5, r1
 8000304:	fa1f fe8c 	uxth.w	lr, ip
 8000308:	431d      	orrs	r5, r3
 800030a:	fa00 f301 	lsl.w	r3, r0, r1
 800030e:	fb08 f00e 	mul.w	r0, r8, lr
 8000312:	0c2c      	lsrs	r4, r5, #16
 8000314:	ea44 440a 	orr.w	r4, r4, sl, lsl #16
 8000318:	42a0      	cmp	r0, r4
 800031a:	fa02 f201 	lsl.w	r2, r2, r1
 800031e:	d90b      	bls.n	8000338 <__udivmoddi4+0x1b8>
 8000320:	eb1c 0404 	adds.w	r4, ip, r4
 8000324:	f108 3aff 	add.w	sl, r8, #4294967295
 8000328:	f080 8088 	bcs.w	800043c <__udivmoddi4+0x2bc>
 800032c:	42a0      	cmp	r0, r4
 800032e:	f240 8085 	bls.w	800043c <__udivmoddi4+0x2bc>
 8000332:	f1a8 0802 	sub.w	r8, r8, #2
 8000336:	4464      	add	r4, ip
 8000338:	1a24      	subs	r4, r4, r0
 800033a:	fbb4 f0f9 	udiv	r0, r4, r9
 800033e:	fb09 4410 	mls	r4, r9, r0, r4
 8000342:	fb00 fe0e 	mul.w	lr, r0, lr
 8000346:	b2ad      	uxth	r5, r5
 8000348:	ea45 4404 	orr.w	r4, r5, r4, lsl #16
 800034c:	45a6      	cmp	lr, r4
 800034e:	d908      	bls.n	8000362 <__udivmoddi4+0x1e2>
 8000350:	eb1c 0404 	adds.w	r4, ip, r4
 8000354:	f100 35ff 	add.w	r5, r0, #4294967295
 8000358:	d26c      	bcs.n	8000434 <__udivmoddi4+0x2b4>
 800035a:	45a6      	cmp	lr, r4
 800035c:	d96a      	bls.n	8000434 <__udivmoddi4+0x2b4>
 800035e:	3802      	subs	r0, #2
 8000360:	4464      	add	r4, ip
 8000362:	ea40 4008 	orr.w	r0, r0, r8, lsl #16
 8000366:	fba0 9502 	umull	r9, r5, r0, r2
 800036a:	eba4 040e 	sub.w	r4, r4, lr
 800036e:	42ac      	cmp	r4, r5
 8000370:	46c8      	mov	r8, r9
 8000372:	46ae      	mov	lr, r5
 8000374:	d356      	bcc.n	8000424 <__udivmoddi4+0x2a4>
 8000376:	d053      	beq.n	8000420 <__udivmoddi4+0x2a0>
 8000378:	2e00      	cmp	r6, #0
 800037a:	d069      	beq.n	8000450 <__udivmoddi4+0x2d0>
 800037c:	ebb3 0208 	subs.w	r2, r3, r8
 8000380:	eb64 040e 	sbc.w	r4, r4, lr
 8000384:	fa22 f301 	lsr.w	r3, r2, r1
 8000388:	fa04 f707 	lsl.w	r7, r4, r7
 800038c:	431f      	orrs	r7, r3
 800038e:	40cc      	lsrs	r4, r1
 8000390:	e9c6 7400 	strd	r7, r4, [r6]
 8000394:	2100      	movs	r1, #0
 8000396:	e747      	b.n	8000228 <__udivmoddi4+0xa8>
 8000398:	fa0c fc02 	lsl.w	ip, ip, r2
 800039c:	f1c2 0120 	rsb	r1, r2, #32
 80003a0:	fa25 f301 	lsr.w	r3, r5, r1
 80003a4:	ea4f 471c 	mov.w	r7, ip, lsr #16
 80003a8:	fa20 f101 	lsr.w	r1, r0, r1
 80003ac:	4095      	lsls	r5, r2
 80003ae:	430d      	orrs	r5, r1
 80003b0:	fbb3 f1f7 	udiv	r1, r3, r7
 80003b4:	fb07 3311 	mls	r3, r7, r1, r3
 80003b8:	fa1f fe8c 	uxth.w	lr, ip
 80003bc:	0c28      	lsrs	r0, r5, #16
 80003be:	ea40 4003 	orr.w	r0, r0, r3, lsl #16
 80003c2:	fb01 f30e 	mul.w	r3, r1, lr
 80003c6:	4283      	cmp	r3, r0
 80003c8:	fa04 f402 	lsl.w	r4, r4, r2
 80003cc:	d908      	bls.n	80003e0 <__udivmoddi4+0x260>
 80003ce:	eb1c 0000 	adds.w	r0, ip, r0
 80003d2:	f101 38ff 	add.w	r8, r1, #4294967295
 80003d6:	d22f      	bcs.n	8000438 <__udivmoddi4+0x2b8>
 80003d8:	4283      	cmp	r3, r0
 80003da:	d92d      	bls.n	8000438 <__udivmoddi4+0x2b8>
 80003dc:	3902      	subs	r1, #2
 80003de:	4460      	add	r0, ip
 80003e0:	1ac0      	subs	r0, r0, r3
 80003e2:	fbb0 f3f7 	udiv	r3, r0, r7
 80003e6:	fb07 0013 	mls	r0, r7, r3, r0
 80003ea:	b2ad      	uxth	r5, r5
 80003ec:	ea45 4500 	orr.w	r5, r5, r0, lsl #16
 80003f0:	fb03 f00e 	mul.w	r0, r3, lr
 80003f4:	42a8      	cmp	r0, r5
 80003f6:	d908      	bls.n	800040a <__udivmoddi4+0x28a>
 80003f8:	eb1c 0505 	adds.w	r5, ip, r5
 80003fc:	f103 38ff 	add.w	r8, r3, #4294967295
 8000400:	d216      	bcs.n	8000430 <__udivmoddi4+0x2b0>
 8000402:	42a8      	cmp	r0, r5
 8000404:	d914      	bls.n	8000430 <__udivmoddi4+0x2b0>
 8000406:	3b02      	subs	r3, #2
 8000408:	4465      	add	r5, ip
 800040a:	1a28      	subs	r0, r5, r0
 800040c:	ea43 4101 	orr.w	r1, r3, r1, lsl #16
 8000410:	e738      	b.n	8000284 <__udivmoddi4+0x104>
 8000412:	4631      	mov	r1, r6
 8000414:	4630      	mov	r0, r6
 8000416:	e707      	b.n	8000228 <__udivmoddi4+0xa8>
 8000418:	462f      	mov	r7, r5
 800041a:	e6e4      	b.n	80001e6 <__udivmoddi4+0x66>
 800041c:	4618      	mov	r0, r3
 800041e:	e6f9      	b.n	8000214 <__udivmoddi4+0x94>
 8000420:	454b      	cmp	r3, r9
 8000422:	d2a9      	bcs.n	8000378 <__udivmoddi4+0x1f8>
 8000424:	ebb9 0802 	subs.w	r8, r9, r2
 8000428:	eb65 0e0c 	sbc.w	lr, r5, ip
 800042c:	3801      	subs	r0, #1
 800042e:	e7a3      	b.n	8000378 <__udivmoddi4+0x1f8>
 8000430:	4643      	mov	r3, r8
 8000432:	e7ea      	b.n	800040a <__udivmoddi4+0x28a>
 8000434:	4628      	mov	r0, r5
 8000436:	e794      	b.n	8000362 <__udivmoddi4+0x1e2>
 8000438:	4641      	mov	r1, r8
 800043a:	e7d1      	b.n	80003e0 <__udivmoddi4+0x260>
 800043c:	46d0      	mov	r8, sl
 800043e:	e77b      	b.n	8000338 <__udivmoddi4+0x1b8>
 8000440:	4464      	add	r4, ip
 8000442:	3802      	subs	r0, #2
 8000444:	e747      	b.n	80002d6 <__udivmoddi4+0x156>
 8000446:	3b02      	subs	r3, #2
 8000448:	4465      	add	r5, ip
 800044a:	e72f      	b.n	80002ac <__udivmoddi4+0x12c>
 800044c:	4608      	mov	r0, r1
 800044e:	e706      	b.n	800025e <__udivmoddi4+0xde>
 8000450:	4631      	mov	r1, r6
 8000452:	e6e9      	b.n	8000228 <__udivmoddi4+0xa8>

08000454 <__aeabi_idiv0>:
 8000454:	4770      	bx	lr
 8000456:	bf00      	nop

08000458 <MX_GPIO_Init>:
 8000458:	b510      	push	{r4, lr}
 800045a:	2400      	movs	r4, #0
 800045c:	b088      	sub	sp, #32
 800045e:	e9cd 4406 	strd	r4, r4, [sp, #24]
 8000462:	4b17      	ldr	r3, [pc, #92]	; (80004c0 <MX_GPIO_Init+0x68>)
 8000464:	a904      	add	r1, sp, #16
 8000466:	699a      	ldr	r2, [r3, #24]
 8000468:	4816      	ldr	r0, [pc, #88]	; (80004c4 <MX_GPIO_Init+0x6c>)
 800046a:	f042 0210 	orr.w	r2, r2, #16
 800046e:	619a      	str	r2, [r3, #24]
 8000470:	699a      	ldr	r2, [r3, #24]
 8000472:	f002 0210 	and.w	r2, r2, #16
 8000476:	9201      	str	r2, [sp, #4]
 8000478:	9a01      	ldr	r2, [sp, #4]
 800047a:	699a      	ldr	r2, [r3, #24]
 800047c:	f042 0220 	orr.w	r2, r2, #32
 8000480:	619a      	str	r2, [r3, #24]
 8000482:	699a      	ldr	r2, [r3, #24]
 8000484:	f002 0220 	and.w	r2, r2, #32
 8000488:	9202      	str	r2, [sp, #8]
 800048a:	9a02      	ldr	r2, [sp, #8]
 800048c:	699a      	ldr	r2, [r3, #24]
 800048e:	f042 0204 	orr.w	r2, r2, #4
 8000492:	619a      	str	r2, [r3, #24]
 8000494:	2208      	movs	r2, #8
 8000496:	699b      	ldr	r3, [r3, #24]
 8000498:	f003 0304 	and.w	r3, r3, #4
 800049c:	9303      	str	r3, [sp, #12]
 800049e:	9b03      	ldr	r3, [sp, #12]
 80004a0:	4b09      	ldr	r3, [pc, #36]	; (80004c8 <MX_GPIO_Init+0x70>)
 80004a2:	e9cd 2304 	strd	r2, r3, [sp, #16]
 80004a6:	f000 fc65 	bl	8000d74 <HAL_GPIO_Init>
 80004aa:	4622      	mov	r2, r4
 80004ac:	4621      	mov	r1, r4
 80004ae:	2009      	movs	r0, #9
 80004b0:	f000 fbd0 	bl	8000c54 <HAL_NVIC_SetPriority>
 80004b4:	2009      	movs	r0, #9
 80004b6:	f000 fbff 	bl	8000cb8 <HAL_NVIC_EnableIRQ>
 80004ba:	b008      	add	sp, #32
 80004bc:	bd10      	pop	{r4, pc}
 80004be:	bf00      	nop
 80004c0:	40021000 	.word	0x40021000
 80004c4:	40010800 	.word	0x40010800
 80004c8:	10110000 	.word	0x10110000

080004cc <write_register>:
 80004cc:	b513      	push	{r0, r1, r4, lr}
 80004ce:	4604      	mov	r4, r0
 80004d0:	f041 0180 	orr.w	r1, r1, #128	; 0x80
 80004d4:	ea41 2102 	orr.w	r1, r1, r2, lsl #8
 80004d8:	f8ad 1006 	strh.w	r1, [sp, #6]
 80004dc:	2200      	movs	r2, #0
 80004de:	8ac1      	ldrh	r1, [r0, #22]
 80004e0:	6840      	ldr	r0, [r0, #4]
 80004e2:	f000 fd21 	bl	8000f28 <HAL_GPIO_WritePin>
 80004e6:	68a3      	ldr	r3, [r4, #8]
 80004e8:	f10d 0106 	add.w	r1, sp, #6
 80004ec:	2202      	movs	r2, #2
 80004ee:	6820      	ldr	r0, [r4, #0]
 80004f0:	f001 fc8f 	bl	8001e12 <HAL_SPI_Transmit>
 80004f4:	2201      	movs	r2, #1
 80004f6:	8ae1      	ldrh	r1, [r4, #22]
 80004f8:	6860      	ldr	r0, [r4, #4]
 80004fa:	f000 fd15 	bl	8000f28 <HAL_GPIO_WritePin>
 80004fe:	b002      	add	sp, #8
 8000500:	bd10      	pop	{r4, pc}

08000502 <read_register>:
 8000502:	b51f      	push	{r0, r1, r2, r3, r4, lr}
 8000504:	4604      	mov	r4, r0
 8000506:	2200      	movs	r2, #0
 8000508:	f001 017f 	and.w	r1, r1, #127	; 0x7f
 800050c:	f88d 1007 	strb.w	r1, [sp, #7]
 8000510:	8ac1      	ldrh	r1, [r0, #22]
 8000512:	6840      	ldr	r0, [r0, #4]
 8000514:	f88d 200f 	strb.w	r2, [sp, #15]
 8000518:	f000 fd06 	bl	8000f28 <HAL_GPIO_WritePin>
 800051c:	68a3      	ldr	r3, [r4, #8]
 800051e:	f10d 0107 	add.w	r1, sp, #7
 8000522:	2201      	movs	r2, #1
 8000524:	6820      	ldr	r0, [r4, #0]
 8000526:	f001 fc74 	bl	8001e12 <HAL_SPI_Transmit>
 800052a:	68a3      	ldr	r3, [r4, #8]
 800052c:	f10d 010f 	add.w	r1, sp, #15
 8000530:	2201      	movs	r2, #1
 8000532:	6820      	ldr	r0, [r4, #0]
 8000534:	f001 fe0e 	bl	8002154 <HAL_SPI_Receive>
 8000538:	6860      	ldr	r0, [r4, #4]
 800053a:	2201      	movs	r2, #1
 800053c:	8ae1      	ldrh	r1, [r4, #22]
 800053e:	f000 fcf3 	bl	8000f28 <HAL_GPIO_WritePin>
 8000542:	f89d 000f 	ldrb.w	r0, [sp, #15]
 8000546:	b004      	add	sp, #16
 8000548:	bd10      	pop	{r4, pc}

0800054a <set_low_data_rate_optimization>:
 800054a:	b538      	push	{r3, r4, r5, lr}
 800054c:	211d      	movs	r1, #29
 800054e:	4605      	mov	r5, r0
 8000550:	f7ff ffd7 	bl	8000502 <read_register>
 8000554:	211e      	movs	r1, #30
 8000556:	4604      	mov	r4, r0
 8000558:	4628      	mov	r0, r5
 800055a:	f7ff ffd2 	bl	8000502 <read_register>
 800055e:	f3c0 1007 	ubfx	r0, r0, #4, #8
 8000562:	280a      	cmp	r0, #10
 8000564:	d90b      	bls.n	800057e <set_low_data_rate_optimization+0x34>
 8000566:	f3c4 1407 	ubfx	r4, r4, #4, #8
 800056a:	2c07      	cmp	r4, #7
 800056c:	bf14      	ite	ne
 800056e:	2204      	movne	r2, #4
 8000570:	220c      	moveq	r2, #12
 8000572:	4628      	mov	r0, r5
 8000574:	e8bd 4038 	ldmia.w	sp!, {r3, r4, r5, lr}
 8000578:	2126      	movs	r1, #38	; 0x26
 800057a:	f7ff bfa7 	b.w	80004cc <write_register>
 800057e:	2204      	movs	r2, #4
 8000580:	e7f7      	b.n	8000572 <set_low_data_rate_optimization+0x28>

08000582 <lora_mode_sleep>:
 8000582:	2280      	movs	r2, #128	; 0x80
 8000584:	2101      	movs	r1, #1
 8000586:	f7ff bfa1 	b.w	80004cc <write_register>

0800058a <lora_mode_standby>:
 800058a:	2281      	movs	r2, #129	; 0x81
 800058c:	2101      	movs	r1, #1
 800058e:	f7ff bf9d 	b.w	80004cc <write_register>

08000592 <lora_set_explicit_header_mode>:
 8000592:	b510      	push	{r4, lr}
 8000594:	211d      	movs	r1, #29
 8000596:	4604      	mov	r4, r0
 8000598:	f7ff ffb3 	bl	8000502 <read_register>
 800059c:	211d      	movs	r1, #29
 800059e:	f000 02fe 	and.w	r2, r0, #254	; 0xfe
 80005a2:	4620      	mov	r0, r4
 80005a4:	e8bd 4010 	ldmia.w	sp!, {r4, lr}
 80005a8:	f7ff bf90 	b.w	80004cc <write_register>

080005ac <lora_set_tx_power>:
 80005ac:	b538      	push	{r3, r4, r5, lr}
 80005ae:	6903      	ldr	r3, [r0, #16]
 80005b0:	4605      	mov	r5, r0
 80005b2:	460c      	mov	r4, r1
 80005b4:	b94b      	cbnz	r3, 80005ca <lora_set_tx_power+0x1e>
 80005b6:	290f      	cmp	r1, #15
 80005b8:	bf28      	it	cs
 80005ba:	240f      	movcs	r4, #15
 80005bc:	2109      	movs	r1, #9
 80005be:	f044 0270 	orr.w	r2, r4, #112	; 0x70
 80005c2:	e8bd 4038 	ldmia.w	sp!, {r3, r4, r5, lr}
 80005c6:	f7ff bf81 	b.w	80004cc <write_register>
 80005ca:	2914      	cmp	r1, #20
 80005cc:	d816      	bhi.n	80005fc <lora_set_tx_power+0x50>
 80005ce:	2901      	cmp	r1, #1
 80005d0:	d916      	bls.n	8000600 <lora_set_tx_power+0x54>
 80005d2:	2911      	cmp	r1, #17
 80005d4:	d915      	bls.n	8000602 <lora_set_tx_power+0x56>
 80005d6:	2287      	movs	r2, #135	; 0x87
 80005d8:	214d      	movs	r1, #77	; 0x4d
 80005da:	4628      	mov	r0, r5
 80005dc:	f7ff ff76 	bl	80004cc <write_register>
 80005e0:	2231      	movs	r2, #49	; 0x31
 80005e2:	3c03      	subs	r4, #3
 80005e4:	b2e4      	uxtb	r4, r4
 80005e6:	210b      	movs	r1, #11
 80005e8:	4628      	mov	r0, r5
 80005ea:	f7ff ff6f 	bl	80004cc <write_register>
 80005ee:	1ea2      	subs	r2, r4, #2
 80005f0:	f062 027f 	orn	r2, r2, #127	; 0x7f
 80005f4:	2109      	movs	r1, #9
 80005f6:	4628      	mov	r0, r5
 80005f8:	b2d2      	uxtb	r2, r2
 80005fa:	e7e2      	b.n	80005c2 <lora_set_tx_power+0x16>
 80005fc:	2414      	movs	r4, #20
 80005fe:	e7ea      	b.n	80005d6 <lora_set_tx_power+0x2a>
 8000600:	2402      	movs	r4, #2
 8000602:	2284      	movs	r2, #132	; 0x84
 8000604:	214d      	movs	r1, #77	; 0x4d
 8000606:	4628      	mov	r0, r5
 8000608:	f7ff ff60 	bl	80004cc <write_register>
 800060c:	222a      	movs	r2, #42	; 0x2a
 800060e:	e7ea      	b.n	80005e6 <lora_set_tx_power+0x3a>

08000610 <lora_set_frequency>:
 8000610:	4611      	mov	r1, r2
 8000612:	b538      	push	{r3, r4, r5, lr}
 8000614:	04dd      	lsls	r5, r3, #19
 8000616:	4604      	mov	r4, r0
 8000618:	2300      	movs	r3, #0
 800061a:	4a0d      	ldr	r2, [pc, #52]	; (8000650 <lora_set_frequency+0x40>)
 800061c:	04c8      	lsls	r0, r1, #19
 800061e:	ea45 3151 	orr.w	r1, r5, r1, lsr #13
 8000622:	f7ff fd95 	bl	8000150 <__aeabi_uldivmod>
 8000626:	4605      	mov	r5, r0
 8000628:	f3c0 4207 	ubfx	r2, r0, #16, #8
 800062c:	2106      	movs	r1, #6
 800062e:	4620      	mov	r0, r4
 8000630:	f7ff ff4c 	bl	80004cc <write_register>
 8000634:	4620      	mov	r0, r4
 8000636:	f3c5 2207 	ubfx	r2, r5, #8, #8
 800063a:	2107      	movs	r1, #7
 800063c:	f7ff ff46 	bl	80004cc <write_register>
 8000640:	4620      	mov	r0, r4
 8000642:	b2ea      	uxtb	r2, r5
 8000644:	2108      	movs	r1, #8
 8000646:	e8bd 4038 	ldmia.w	sp!, {r3, r4, r5, lr}
 800064a:	f7ff bf3f 	b.w	80004cc <write_register>
 800064e:	bf00      	nop
 8000650:	01e84800 	.word	0x01e84800

08000654 <lora_set_spreading_factor>:
 8000654:	2905      	cmp	r1, #5
 8000656:	b538      	push	{r3, r4, r5, lr}
 8000658:	4604      	mov	r4, r0
 800065a:	460d      	mov	r5, r1
 800065c:	d903      	bls.n	8000666 <lora_set_spreading_factor+0x12>
 800065e:	290c      	cmp	r1, #12
 8000660:	d81e      	bhi.n	80006a0 <lora_set_spreading_factor+0x4c>
 8000662:	2906      	cmp	r1, #6
 8000664:	d11d      	bne.n	80006a2 <lora_set_spreading_factor+0x4e>
 8000666:	22c5      	movs	r2, #197	; 0xc5
 8000668:	2131      	movs	r1, #49	; 0x31
 800066a:	4620      	mov	r0, r4
 800066c:	f7ff ff2e 	bl	80004cc <write_register>
 8000670:	220c      	movs	r2, #12
 8000672:	2137      	movs	r1, #55	; 0x37
 8000674:	4620      	mov	r0, r4
 8000676:	f7ff ff29 	bl	80004cc <write_register>
 800067a:	2506      	movs	r5, #6
 800067c:	211e      	movs	r1, #30
 800067e:	4620      	mov	r0, r4
 8000680:	f7ff ff3f 	bl	8000502 <read_register>
 8000684:	f000 020f 	and.w	r2, r0, #15
 8000688:	ea42 1205 	orr.w	r2, r2, r5, lsl #4
 800068c:	4620      	mov	r0, r4
 800068e:	211e      	movs	r1, #30
 8000690:	b2d2      	uxtb	r2, r2
 8000692:	f7ff ff1b 	bl	80004cc <write_register>
 8000696:	4620      	mov	r0, r4
 8000698:	e8bd 4038 	ldmia.w	sp!, {r3, r4, r5, lr}
 800069c:	f7ff bf55 	b.w	800054a <set_low_data_rate_optimization>
 80006a0:	250c      	movs	r5, #12
 80006a2:	4620      	mov	r0, r4
 80006a4:	22c3      	movs	r2, #195	; 0xc3
 80006a6:	2131      	movs	r1, #49	; 0x31
 80006a8:	f7ff ff10 	bl	80004cc <write_register>
 80006ac:	220a      	movs	r2, #10
 80006ae:	2137      	movs	r1, #55	; 0x37
 80006b0:	4620      	mov	r0, r4
 80006b2:	f7ff ff0b 	bl	80004cc <write_register>
 80006b6:	e7e1      	b.n	800067c <lora_set_spreading_factor+0x28>

080006b8 <lora_set_preamble_length>:
 80006b8:	b538      	push	{r3, r4, r5, lr}
 80006ba:	4605      	mov	r5, r0
 80006bc:	460c      	mov	r4, r1
 80006be:	0a0a      	lsrs	r2, r1, #8
 80006c0:	2120      	movs	r1, #32
 80006c2:	f7ff ff03 	bl	80004cc <write_register>
 80006c6:	4628      	mov	r0, r5
 80006c8:	f004 020f 	and.w	r2, r4, #15
 80006cc:	2121      	movs	r1, #33	; 0x21
 80006ce:	e8bd 4038 	ldmia.w	sp!, {r3, r4, r5, lr}
 80006d2:	f7ff befb 	b.w	80004cc <write_register>

080006d6 <lora_version>:
 80006d6:	2142      	movs	r1, #66	; 0x42
 80006d8:	f7ff bf13 	b.w	8000502 <read_register>

080006dc <lora_is_transmitting>:
 80006dc:	2101      	movs	r1, #1
 80006de:	b508      	push	{r3, lr}
 80006e0:	f7ff ff0f 	bl	8000502 <read_register>
 80006e4:	f000 0003 	and.w	r0, r0, #3
 80006e8:	2803      	cmp	r0, #3
 80006ea:	bf0c      	ite	eq
 80006ec:	2005      	moveq	r0, #5
 80006ee:	2000      	movne	r0, #0
 80006f0:	bd08      	pop	{r3, pc}

080006f2 <lora_clear_interrupt_tx_done>:
 80006f2:	2208      	movs	r2, #8
 80006f4:	2112      	movs	r1, #18
 80006f6:	f7ff bee9 	b.w	80004cc <write_register>

080006fa <lora_send_packet_base>:
 80006fa:	e92d 41f3 	stmdb	sp!, {r0, r1, r4, r5, r6, r7, r8, lr}
 80006fe:	4604      	mov	r4, r0
 8000700:	460f      	mov	r7, r1
 8000702:	4615      	mov	r5, r2
 8000704:	4698      	mov	r8, r3
 8000706:	f7ff ffe9 	bl	80006dc <lora_is_transmitting>
 800070a:	4606      	mov	r6, r0
 800070c:	2800      	cmp	r0, #0
 800070e:	d141      	bne.n	8000794 <lora_send_packet_base+0x9a>
 8000710:	2281      	movs	r2, #129	; 0x81
 8000712:	2101      	movs	r1, #1
 8000714:	4620      	mov	r0, r4
 8000716:	f7ff fed9 	bl	80004cc <write_register>
 800071a:	4620      	mov	r0, r4
 800071c:	f7ff ffe9 	bl	80006f2 <lora_clear_interrupt_tx_done>
 8000720:	210d      	movs	r1, #13
 8000722:	4620      	mov	r0, r4
 8000724:	7d22      	ldrb	r2, [r4, #20]
 8000726:	f7ff fed1 	bl	80004cc <write_register>
 800072a:	210e      	movs	r1, #14
 800072c:	4620      	mov	r0, r4
 800072e:	7d22      	ldrb	r2, [r4, #20]
 8000730:	f7ff fecc 	bl	80004cc <write_register>
 8000734:	462a      	mov	r2, r5
 8000736:	2122      	movs	r1, #34	; 0x22
 8000738:	4620      	mov	r0, r4
 800073a:	f7ff fec7 	bl	80004cc <write_register>
 800073e:	2380      	movs	r3, #128	; 0x80
 8000740:	4632      	mov	r2, r6
 8000742:	8ae1      	ldrh	r1, [r4, #22]
 8000744:	6860      	ldr	r0, [r4, #4]
 8000746:	f88d 3007 	strb.w	r3, [sp, #7]
 800074a:	f000 fbed 	bl	8000f28 <HAL_GPIO_WritePin>
 800074e:	2201      	movs	r2, #1
 8000750:	68a3      	ldr	r3, [r4, #8]
 8000752:	6820      	ldr	r0, [r4, #0]
 8000754:	f10d 0107 	add.w	r1, sp, #7
 8000758:	f001 fb5b 	bl	8001e12 <HAL_SPI_Transmit>
 800075c:	f1b8 0f01 	cmp.w	r8, #1
 8000760:	b2aa      	uxth	r2, r5
 8000762:	d107      	bne.n	8000774 <lora_send_packet_base+0x7a>
 8000764:	4639      	mov	r1, r7
 8000766:	6820      	ldr	r0, [r4, #0]
 8000768:	f001 fd98 	bl	800229c <HAL_SPI_Transmit_DMA>
 800076c:	4630      	mov	r0, r6
 800076e:	b002      	add	sp, #8
 8000770:	e8bd 81f0 	ldmia.w	sp!, {r4, r5, r6, r7, r8, pc}
 8000774:	4639      	mov	r1, r7
 8000776:	68a3      	ldr	r3, [r4, #8]
 8000778:	6820      	ldr	r0, [r4, #0]
 800077a:	f001 fb4a 	bl	8001e12 <HAL_SPI_Transmit>
 800077e:	8ae1      	ldrh	r1, [r4, #22]
 8000780:	6860      	ldr	r0, [r4, #4]
 8000782:	2201      	movs	r2, #1
 8000784:	f000 fbd0 	bl	8000f28 <HAL_GPIO_WritePin>
 8000788:	2283      	movs	r2, #131	; 0x83
 800078a:	2101      	movs	r1, #1
 800078c:	4620      	mov	r0, r4
 800078e:	f7ff fe9d 	bl	80004cc <write_register>
 8000792:	e7eb      	b.n	800076c <lora_send_packet_base+0x72>
 8000794:	2605      	movs	r6, #5
 8000796:	e7e9      	b.n	800076c <lora_send_packet_base+0x72>

08000798 <lora_send_packet>:
 8000798:	2302      	movs	r3, #2
 800079a:	f7ff bfae 	b.w	80006fa <lora_send_packet_base>

0800079e <lora_init>:
 800079e:	b5f8      	push	{r3, r4, r5, r6, r7, lr}
 80007a0:	82c3      	strh	r3, [r0, #22]
 80007a2:	2301      	movs	r3, #1
 80007a4:	e9dd 6706 	ldrd	r6, r7, [sp, #24]
 80007a8:	6103      	str	r3, [r0, #16]
 80007aa:	2500      	movs	r5, #0
 80007ac:	f44f 737a 	mov.w	r3, #1000	; 0x3e8
 80007b0:	e9c0 1200 	strd	r1, r2, [r0]
 80007b4:	60c6      	str	r6, [r0, #12]
 80007b6:	8285      	strh	r5, [r0, #20]
 80007b8:	6083      	str	r3, [r0, #8]
 80007ba:	4604      	mov	r4, r0
 80007bc:	f7ff ff8b 	bl	80006d6 <lora_version>
 80007c0:	2812      	cmp	r0, #18
 80007c2:	d12e      	bne.n	8000822 <lora_init+0x84>
 80007c4:	4620      	mov	r0, r4
 80007c6:	f7ff fedc 	bl	8000582 <lora_mode_sleep>
 80007ca:	4620      	mov	r0, r4
 80007cc:	f7ff fed9 	bl	8000582 <lora_mode_sleep>
 80007d0:	463b      	mov	r3, r7
 80007d2:	4632      	mov	r2, r6
 80007d4:	4620      	mov	r0, r4
 80007d6:	f7ff ff1b 	bl	8000610 <lora_set_frequency>
 80007da:	2107      	movs	r1, #7
 80007dc:	4620      	mov	r0, r4
 80007de:	f7ff ff39 	bl	8000654 <lora_set_spreading_factor>
 80007e2:	210a      	movs	r1, #10
 80007e4:	4620      	mov	r0, r4
 80007e6:	f7ff ff67 	bl	80006b8 <lora_set_preamble_length>
 80007ea:	4620      	mov	r0, r4
 80007ec:	f7ff fed1 	bl	8000592 <lora_set_explicit_header_mode>
 80007f0:	210c      	movs	r1, #12
 80007f2:	4620      	mov	r0, r4
 80007f4:	f7ff fe85 	bl	8000502 <read_register>
 80007f8:	f040 0203 	orr.w	r2, r0, #3
 80007fc:	210c      	movs	r1, #12
 80007fe:	4620      	mov	r0, r4
 8000800:	b2d2      	uxtb	r2, r2
 8000802:	f7ff fe63 	bl	80004cc <write_register>
 8000806:	2204      	movs	r2, #4
 8000808:	2126      	movs	r1, #38	; 0x26
 800080a:	4620      	mov	r0, r4
 800080c:	f7ff fe5e 	bl	80004cc <write_register>
 8000810:	2111      	movs	r1, #17
 8000812:	4620      	mov	r0, r4
 8000814:	f7ff feca 	bl	80005ac <lora_set_tx_power>
 8000818:	4620      	mov	r0, r4
 800081a:	f7ff feb6 	bl	800058a <lora_mode_standby>
 800081e:	4628      	mov	r0, r5
 8000820:	bdf8      	pop	{r3, r4, r5, r6, r7, pc}
 8000822:	2004      	movs	r0, #4
 8000824:	e7fc      	b.n	8000820 <lora_init+0x82>

08000826 <SystemClock_Config>:
 8000826:	b530      	push	{r4, r5, lr}
 8000828:	b095      	sub	sp, #84	; 0x54
 800082a:	2210      	movs	r2, #16
 800082c:	2100      	movs	r1, #0
 800082e:	a80c      	add	r0, sp, #48	; 0x30
 8000830:	f001 fe0a 	bl	8002448 <memset>
 8000834:	2214      	movs	r2, #20
 8000836:	2100      	movs	r1, #0
 8000838:	eb0d 0002 	add.w	r0, sp, r2
 800083c:	f001 fe04 	bl	8002448 <memset>
 8000840:	2210      	movs	r2, #16
 8000842:	2100      	movs	r1, #0
 8000844:	a801      	add	r0, sp, #4
 8000846:	f001 fdff 	bl	8002448 <memset>
 800084a:	2502      	movs	r5, #2
 800084c:	f44f 3380 	mov.w	r3, #65536	; 0x10000
 8000850:	2209      	movs	r2, #9
 8000852:	2401      	movs	r4, #1
 8000854:	e9cd 230a 	strd	r2, r3, [sp, #40]	; 0x28
 8000858:	e9cd 5311 	strd	r5, r3, [sp, #68]	; 0x44
 800085c:	f44f 2300 	mov.w	r3, #524288	; 0x80000
 8000860:	a80a      	add	r0, sp, #40	; 0x28
 8000862:	940e      	str	r4, [sp, #56]	; 0x38
 8000864:	9410      	str	r4, [sp, #64]	; 0x40
 8000866:	9313      	str	r3, [sp, #76]	; 0x4c
 8000868:	f000 fb76 	bl	8000f58 <HAL_RCC_OscConfig>
 800086c:	b108      	cbz	r0, 8000872 <SystemClock_Config+0x4c>
 800086e:	b672      	cpsid	i
 8000870:	e7fe      	b.n	8000870 <SystemClock_Config+0x4a>
 8000872:	230f      	movs	r3, #15
 8000874:	e9cd 0007 	strd	r0, r0, [sp, #28]
 8000878:	9009      	str	r0, [sp, #36]	; 0x24
 800087a:	4621      	mov	r1, r4
 800087c:	a805      	add	r0, sp, #20
 800087e:	e9cd 3505 	strd	r3, r5, [sp, #20]
 8000882:	f000 fd3f 	bl	8001304 <HAL_RCC_ClockConfig>
 8000886:	b108      	cbz	r0, 800088c <SystemClock_Config+0x66>
 8000888:	b672      	cpsid	i
 800088a:	e7fe      	b.n	800088a <SystemClock_Config+0x64>
 800088c:	f44f 7300 	mov.w	r3, #512	; 0x200
 8000890:	a801      	add	r0, sp, #4
 8000892:	9401      	str	r4, [sp, #4]
 8000894:	9302      	str	r3, [sp, #8]
 8000896:	f000 fde1 	bl	800145c <HAL_RCCEx_PeriphCLKConfig>
 800089a:	b108      	cbz	r0, 80008a0 <SystemClock_Config+0x7a>
 800089c:	b672      	cpsid	i
 800089e:	e7fe      	b.n	800089e <SystemClock_Config+0x78>
 80008a0:	b015      	add	sp, #84	; 0x54
 80008a2:	bd30      	pop	{r4, r5, pc}
 80008a4:	0000      	movs	r0, r0
	...

080008a8 <main>:
 80008a8:	b537      	push	{r0, r1, r2, r4, r5, lr}
 80008aa:	f000 f98b 	bl	8000bc4 <HAL_Init>
 80008ae:	f7ff ffba 	bl	8000826 <SystemClock_Config>
 80008b2:	f7ff fdd1 	bl	8000458 <MX_GPIO_Init>
 80008b6:	f000 f839 	bl	800092c <MX_RTC_Init>
 80008ba:	f000 f8af 	bl	8000a1c <MX_SPI1_Init>
 80008be:	a318      	add	r3, pc, #96	; (adr r3, 8000920 <main+0x78>)
 80008c0:	e9d3 2300 	ldrd	r2, r3, [r3]
 80008c4:	4910      	ldr	r1, [pc, #64]	; (8000908 <main+0x60>)
 80008c6:	e9cd 2300 	strd	r2, r3, [sp]
 80008ca:	4810      	ldr	r0, [pc, #64]	; (800090c <main+0x64>)
 80008cc:	2310      	movs	r3, #16
 80008ce:	4a10      	ldr	r2, [pc, #64]	; (8000910 <main+0x68>)
 80008d0:	f7ff ff65 	bl	800079e <lora_init>
 80008d4:	b118      	cbz	r0, 80008de <main+0x36>
 80008d6:	f44f 72ca 	mov.w	r2, #404	; 0x194
 80008da:	4b0e      	ldr	r3, [pc, #56]	; (8000914 <main+0x6c>)
 80008dc:	601a      	str	r2, [r3, #0]
 80008de:	4d0e      	ldr	r5, [pc, #56]	; (8000918 <main+0x70>)
 80008e0:	4c0a      	ldr	r4, [pc, #40]	; (800090c <main+0x64>)
 80008e2:	6829      	ldr	r1, [r5, #0]
 80008e4:	2204      	movs	r2, #4
 80008e6:	4620      	mov	r0, r4
 80008e8:	f7ff ff56 	bl	8000798 <lora_send_packet>
 80008ec:	2005      	movs	r0, #5
 80008ee:	f000 f98d 	bl	8000c0c <HAL_Delay>
 80008f2:	4b0a      	ldr	r3, [pc, #40]	; (800091c <main+0x74>)
 80008f4:	2204      	movs	r2, #4
 80008f6:	4620      	mov	r0, r4
 80008f8:	6819      	ldr	r1, [r3, #0]
 80008fa:	f7ff ff4d 	bl	8000798 <lora_send_packet>
 80008fe:	2005      	movs	r0, #5
 8000900:	f000 f984 	bl	8000c0c <HAL_Delay>
 8000904:	e7ed      	b.n	80008e2 <main+0x3a>
 8000906:	bf00      	nop
 8000908:	20000060 	.word	0x20000060
 800090c:	20000030 	.word	0x20000030
 8000910:	40010800 	.word	0x40010800
 8000914:	20000048 	.word	0x20000048
 8000918:	20000004 	.word	0x20000004
 800091c:	20000000 	.word	0x20000000
 8000920:	33bca100 	.word	0x33bca100
 8000924:	00000000 	.word	0x00000000

08000928 <Error_Handler>:
 8000928:	b672      	cpsid	i
 800092a:	e7fe      	b.n	800092a <Error_Handler+0x2>

0800092c <MX_RTC_Init>:
 800092c:	b51f      	push	{r0, r1, r2, r3, r4, lr}
 800092e:	f04f 33ff 	mov.w	r3, #4294967295
 8000932:	4823      	ldr	r0, [pc, #140]	; (80009c0 <MX_RTC_Init+0x94>)
 8000934:	4a23      	ldr	r2, [pc, #140]	; (80009c4 <MX_RTC_Init+0x98>)
 8000936:	2400      	movs	r4, #0
 8000938:	e9c0 2300 	strd	r2, r3, [r0]
 800093c:	f44f 7380 	mov.w	r3, #256	; 0x100
 8000940:	e9cd 4401 	strd	r4, r4, [sp, #4]
 8000944:	f8ad 4000 	strh.w	r4, [sp]
 8000948:	f88d 4002 	strb.w	r4, [sp, #2]
 800094c:	9403      	str	r4, [sp, #12]
 800094e:	6083      	str	r3, [r0, #8]
 8000950:	f001 f92e 	bl	8001bb0 <HAL_RTC_Init>
 8000954:	b108      	cbz	r0, 800095a <MX_RTC_Init+0x2e>
 8000956:	f7ff ffe7 	bl	8000928 <Error_Handler>
 800095a:	2201      	movs	r2, #1
 800095c:	4669      	mov	r1, sp
 800095e:	4818      	ldr	r0, [pc, #96]	; (80009c0 <MX_RTC_Init+0x94>)
 8000960:	f88d 4000 	strb.w	r4, [sp]
 8000964:	f88d 4001 	strb.w	r4, [sp, #1]
 8000968:	f88d 4002 	strb.w	r4, [sp, #2]
 800096c:	f000 ff17 	bl	800179e <HAL_RTC_SetTime>
 8000970:	b108      	cbz	r0, 8000976 <MX_RTC_Init+0x4a>
 8000972:	f7ff ffd9 	bl	8000928 <Error_Handler>
 8000976:	2201      	movs	r2, #1
 8000978:	2300      	movs	r3, #0
 800097a:	4811      	ldr	r0, [pc, #68]	; (80009c0 <MX_RTC_Init+0x94>)
 800097c:	a901      	add	r1, sp, #4
 800097e:	f88d 2004 	strb.w	r2, [sp, #4]
 8000982:	f88d 2005 	strb.w	r2, [sp, #5]
 8000986:	f88d 2006 	strb.w	r2, [sp, #6]
 800098a:	f88d 3007 	strb.w	r3, [sp, #7]
 800098e:	f001 f813 	bl	80019b8 <HAL_RTC_SetDate>
 8000992:	b108      	cbz	r0, 8000998 <MX_RTC_Init+0x6c>
 8000994:	f7ff ffc8 	bl	8000928 <Error_Handler>
 8000998:	f645 1323 	movw	r3, #22819	; 0x5923
 800099c:	f8ad 3008 	strh.w	r3, [sp, #8]
 80009a0:	2359      	movs	r3, #89	; 0x59
 80009a2:	f88d 300a 	strb.w	r3, [sp, #10]
 80009a6:	2300      	movs	r3, #0
 80009a8:	2201      	movs	r2, #1
 80009aa:	4805      	ldr	r0, [pc, #20]	; (80009c0 <MX_RTC_Init+0x94>)
 80009ac:	a902      	add	r1, sp, #8
 80009ae:	9303      	str	r3, [sp, #12]
 80009b0:	f001 f85a 	bl	8001a68 <HAL_RTC_SetAlarm_IT>
 80009b4:	b108      	cbz	r0, 80009ba <MX_RTC_Init+0x8e>
 80009b6:	f7ff ffb7 	bl	8000928 <Error_Handler>
 80009ba:	b004      	add	sp, #16
 80009bc:	bd10      	pop	{r4, pc}
 80009be:	bf00      	nop
 80009c0:	2000004c 	.word	0x2000004c
 80009c4:	40002800 	.word	0x40002800

080009c8 <HAL_RTC_MspInit>:
 80009c8:	b507      	push	{r0, r1, r2, lr}
 80009ca:	4b11      	ldr	r3, [pc, #68]	; (8000a10 <HAL_RTC_MspInit+0x48>)
 80009cc:	6802      	ldr	r2, [r0, #0]
 80009ce:	429a      	cmp	r2, r3
 80009d0:	d11a      	bne.n	8000a08 <HAL_RTC_MspInit+0x40>
 80009d2:	f000 fabb 	bl	8000f4c <HAL_PWR_EnableBkUpAccess>
 80009d6:	4b0f      	ldr	r3, [pc, #60]	; (8000a14 <HAL_RTC_MspInit+0x4c>)
 80009d8:	2029      	movs	r0, #41	; 0x29
 80009da:	69da      	ldr	r2, [r3, #28]
 80009dc:	f042 6200 	orr.w	r2, r2, #134217728	; 0x8000000
 80009e0:	61da      	str	r2, [r3, #28]
 80009e2:	2201      	movs	r2, #1
 80009e4:	69db      	ldr	r3, [r3, #28]
 80009e6:	f003 6300 	and.w	r3, r3, #134217728	; 0x8000000
 80009ea:	9301      	str	r3, [sp, #4]
 80009ec:	9b01      	ldr	r3, [sp, #4]
 80009ee:	4b0a      	ldr	r3, [pc, #40]	; (8000a18 <HAL_RTC_MspInit+0x50>)
 80009f0:	f8c3 243c 	str.w	r2, [r3, #1084]	; 0x43c
 80009f4:	2200      	movs	r2, #0
 80009f6:	4611      	mov	r1, r2
 80009f8:	f000 f92c 	bl	8000c54 <HAL_NVIC_SetPriority>
 80009fc:	2029      	movs	r0, #41	; 0x29
 80009fe:	b003      	add	sp, #12
 8000a00:	f85d eb04 	ldr.w	lr, [sp], #4
 8000a04:	f000 b958 	b.w	8000cb8 <HAL_NVIC_EnableIRQ>
 8000a08:	b003      	add	sp, #12
 8000a0a:	f85d fb04 	ldr.w	pc, [sp], #4
 8000a0e:	bf00      	nop
 8000a10:	40002800 	.word	0x40002800
 8000a14:	40021000 	.word	0x40021000
 8000a18:	42420000 	.word	0x42420000

08000a1c <MX_SPI1_Init>:
 8000a1c:	b508      	push	{r3, lr}
 8000a1e:	2300      	movs	r3, #0
 8000a20:	480a      	ldr	r0, [pc, #40]	; (8000a4c <MX_SPI1_Init+0x30>)
 8000a22:	4a0b      	ldr	r2, [pc, #44]	; (8000a50 <MX_SPI1_Init+0x34>)
 8000a24:	e9c0 3302 	strd	r3, r3, [r0, #8]
 8000a28:	e9c0 2300 	strd	r2, r3, [r0]
 8000a2c:	e9c0 3304 	strd	r3, r3, [r0, #16]
 8000a30:	e9c0 3308 	strd	r3, r3, [r0, #32]
 8000a34:	6183      	str	r3, [r0, #24]
 8000a36:	6283      	str	r3, [r0, #40]	; 0x28
 8000a38:	230a      	movs	r3, #10
 8000a3a:	62c3      	str	r3, [r0, #44]	; 0x2c
 8000a3c:	f001 f991 	bl	8001d62 <HAL_SPI_Init>
 8000a40:	b118      	cbz	r0, 8000a4a <MX_SPI1_Init+0x2e>
 8000a42:	e8bd 4008 	ldmia.w	sp!, {r3, lr}
 8000a46:	f7ff bf6f 	b.w	8000928 <Error_Handler>
 8000a4a:	bd08      	pop	{r3, pc}
 8000a4c:	20000060 	.word	0x20000060
 8000a50:	40013000 	.word	0x40013000

08000a54 <HAL_SPI_MspInit>:
 8000a54:	b510      	push	{r4, lr}
 8000a56:	4604      	mov	r4, r0
 8000a58:	b086      	sub	sp, #24
 8000a5a:	2210      	movs	r2, #16
 8000a5c:	2100      	movs	r1, #0
 8000a5e:	a802      	add	r0, sp, #8
 8000a60:	f001 fcf2 	bl	8002448 <memset>
 8000a64:	6822      	ldr	r2, [r4, #0]
 8000a66:	4b14      	ldr	r3, [pc, #80]	; (8000ab8 <HAL_SPI_MspInit+0x64>)
 8000a68:	429a      	cmp	r2, r3
 8000a6a:	d123      	bne.n	8000ab4 <HAL_SPI_MspInit+0x60>
 8000a6c:	f503 4360 	add.w	r3, r3, #57344	; 0xe000
 8000a70:	699a      	ldr	r2, [r3, #24]
 8000a72:	4812      	ldr	r0, [pc, #72]	; (8000abc <HAL_SPI_MspInit+0x68>)
 8000a74:	f442 5280 	orr.w	r2, r2, #4096	; 0x1000
 8000a78:	619a      	str	r2, [r3, #24]
 8000a7a:	699a      	ldr	r2, [r3, #24]
 8000a7c:	a902      	add	r1, sp, #8
 8000a7e:	f402 5280 	and.w	r2, r2, #4096	; 0x1000
 8000a82:	9200      	str	r2, [sp, #0]
 8000a84:	9a00      	ldr	r2, [sp, #0]
 8000a86:	699a      	ldr	r2, [r3, #24]
 8000a88:	f042 0204 	orr.w	r2, r2, #4
 8000a8c:	619a      	str	r2, [r3, #24]
 8000a8e:	699b      	ldr	r3, [r3, #24]
 8000a90:	f003 0304 	and.w	r3, r3, #4
 8000a94:	9301      	str	r3, [sp, #4]
 8000a96:	9b01      	ldr	r3, [sp, #4]
 8000a98:	23b0      	movs	r3, #176	; 0xb0
 8000a9a:	9302      	str	r3, [sp, #8]
 8000a9c:	f000 f96a 	bl	8000d74 <HAL_GPIO_Init>
 8000aa0:	2302      	movs	r3, #2
 8000aa2:	2240      	movs	r2, #64	; 0x40
 8000aa4:	e9cd 2302 	strd	r2, r3, [sp, #8]
 8000aa8:	2303      	movs	r3, #3
 8000aaa:	4804      	ldr	r0, [pc, #16]	; (8000abc <HAL_SPI_MspInit+0x68>)
 8000aac:	a902      	add	r1, sp, #8
 8000aae:	9305      	str	r3, [sp, #20]
 8000ab0:	f000 f960 	bl	8000d74 <HAL_GPIO_Init>
 8000ab4:	b006      	add	sp, #24
 8000ab6:	bd10      	pop	{r4, pc}
 8000ab8:	40013000 	.word	0x40013000
 8000abc:	40010800 	.word	0x40010800

08000ac0 <HAL_MspInit>:
 8000ac0:	4b0e      	ldr	r3, [pc, #56]	; (8000afc <HAL_MspInit+0x3c>)
 8000ac2:	b082      	sub	sp, #8
 8000ac4:	699a      	ldr	r2, [r3, #24]
 8000ac6:	f042 0201 	orr.w	r2, r2, #1
 8000aca:	619a      	str	r2, [r3, #24]
 8000acc:	699a      	ldr	r2, [r3, #24]
 8000ace:	f002 0201 	and.w	r2, r2, #1
 8000ad2:	9200      	str	r2, [sp, #0]
 8000ad4:	9a00      	ldr	r2, [sp, #0]
 8000ad6:	69da      	ldr	r2, [r3, #28]
 8000ad8:	f042 5280 	orr.w	r2, r2, #268435456	; 0x10000000
 8000adc:	61da      	str	r2, [r3, #28]
 8000ade:	69db      	ldr	r3, [r3, #28]
 8000ae0:	4a07      	ldr	r2, [pc, #28]	; (8000b00 <HAL_MspInit+0x40>)
 8000ae2:	f003 5380 	and.w	r3, r3, #268435456	; 0x10000000
 8000ae6:	9301      	str	r3, [sp, #4]
 8000ae8:	9b01      	ldr	r3, [sp, #4]
 8000aea:	6853      	ldr	r3, [r2, #4]
 8000aec:	f023 63e0 	bic.w	r3, r3, #117440512	; 0x7000000
 8000af0:	f043 7300 	orr.w	r3, r3, #33554432	; 0x2000000
 8000af4:	6053      	str	r3, [r2, #4]
 8000af6:	b002      	add	sp, #8
 8000af8:	4770      	bx	lr
 8000afa:	bf00      	nop
 8000afc:	40021000 	.word	0x40021000
 8000b00:	40010000 	.word	0x40010000

08000b04 <NMI_Handler>:
 8000b04:	e7fe      	b.n	8000b04 <NMI_Handler>

08000b06 <HardFault_Handler>:
 8000b06:	e7fe      	b.n	8000b06 <HardFault_Handler>

08000b08 <MemManage_Handler>:
 8000b08:	e7fe      	b.n	8000b08 <MemManage_Handler>

08000b0a <BusFault_Handler>:
 8000b0a:	e7fe      	b.n	8000b0a <BusFault_Handler>

08000b0c <UsageFault_Handler>:
 8000b0c:	e7fe      	b.n	8000b0c <UsageFault_Handler>

08000b0e <SVC_Handler>:
 8000b0e:	4770      	bx	lr

08000b10 <DebugMon_Handler>:
 8000b10:	4770      	bx	lr

08000b12 <PendSV_Handler>:
 8000b12:	4770      	bx	lr

08000b14 <SysTick_Handler>:
 8000b14:	f000 b868 	b.w	8000be8 <HAL_IncTick>

08000b18 <EXTI3_IRQHandler>:
 8000b18:	2008      	movs	r0, #8
 8000b1a:	f000 ba0b 	b.w	8000f34 <HAL_GPIO_EXTI_IRQHandler>
	...

08000b20 <RTC_Alarm_IRQHandler>:
 8000b20:	4801      	ldr	r0, [pc, #4]	; (8000b28 <RTC_Alarm_IRQHandler+0x8>)
 8000b22:	f001 b80f 	b.w	8001b44 <HAL_RTC_AlarmIRQHandler>
 8000b26:	bf00      	nop
 8000b28:	2000004c 	.word	0x2000004c

08000b2c <SystemInit>:
 8000b2c:	4770      	bx	lr
	...

08000b30 <Reset_Handler>:
 8000b30:	480c      	ldr	r0, [pc, #48]	; (8000b64 <LoopFillZerobss+0x12>)
 8000b32:	490d      	ldr	r1, [pc, #52]	; (8000b68 <LoopFillZerobss+0x16>)
 8000b34:	4a0d      	ldr	r2, [pc, #52]	; (8000b6c <LoopFillZerobss+0x1a>)
 8000b36:	2300      	movs	r3, #0
 8000b38:	e002      	b.n	8000b40 <LoopCopyDataInit>

08000b3a <CopyDataInit>:
 8000b3a:	58d4      	ldr	r4, [r2, r3]
 8000b3c:	50c4      	str	r4, [r0, r3]
 8000b3e:	3304      	adds	r3, #4

08000b40 <LoopCopyDataInit>:
 8000b40:	18c4      	adds	r4, r0, r3
 8000b42:	428c      	cmp	r4, r1
 8000b44:	d3f9      	bcc.n	8000b3a <CopyDataInit>
 8000b46:	4a0a      	ldr	r2, [pc, #40]	; (8000b70 <LoopFillZerobss+0x1e>)
 8000b48:	4c0a      	ldr	r4, [pc, #40]	; (8000b74 <LoopFillZerobss+0x22>)
 8000b4a:	2300      	movs	r3, #0
 8000b4c:	e001      	b.n	8000b52 <LoopFillZerobss>

08000b4e <FillZerobss>:
 8000b4e:	6013      	str	r3, [r2, #0]
 8000b50:	3204      	adds	r2, #4

08000b52 <LoopFillZerobss>:
 8000b52:	42a2      	cmp	r2, r4
 8000b54:	d3fb      	bcc.n	8000b4e <FillZerobss>
 8000b56:	f7ff ffe9 	bl	8000b2c <SystemInit>
 8000b5a:	f001 fc51 	bl	8002400 <__libc_init_array>
 8000b5e:	f7ff fea3 	bl	80008a8 <main>
 8000b62:	4770      	bx	lr
 8000b64:	20000000 	.word	0x20000000
 8000b68:	20000014 	.word	0x20000014
 8000b6c:	080024b4 	.word	0x080024b4
 8000b70:	20000014 	.word	0x20000014
 8000b74:	200000bc 	.word	0x200000bc

08000b78 <ADC1_2_IRQHandler>:
 8000b78:	e7fe      	b.n	8000b78 <ADC1_2_IRQHandler>
	...

08000b7c <HAL_InitTick>:
 8000b7c:	b538      	push	{r3, r4, r5, lr}
 8000b7e:	4b0e      	ldr	r3, [pc, #56]	; (8000bb8 <HAL_InitTick+0x3c>)
 8000b80:	4605      	mov	r5, r0
 8000b82:	7818      	ldrb	r0, [r3, #0]
 8000b84:	f44f 737a 	mov.w	r3, #1000	; 0x3e8
 8000b88:	fbb3 f3f0 	udiv	r3, r3, r0
 8000b8c:	4a0b      	ldr	r2, [pc, #44]	; (8000bbc <HAL_InitTick+0x40>)
 8000b8e:	6810      	ldr	r0, [r2, #0]
 8000b90:	fbb0 f0f3 	udiv	r0, r0, r3
 8000b94:	f000 f89e 	bl	8000cd4 <HAL_SYSTICK_Config>
 8000b98:	4604      	mov	r4, r0
 8000b9a:	b958      	cbnz	r0, 8000bb4 <HAL_InitTick+0x38>
 8000b9c:	2d0f      	cmp	r5, #15
 8000b9e:	d809      	bhi.n	8000bb4 <HAL_InitTick+0x38>
 8000ba0:	4602      	mov	r2, r0
 8000ba2:	4629      	mov	r1, r5
 8000ba4:	f04f 30ff 	mov.w	r0, #4294967295
 8000ba8:	f000 f854 	bl	8000c54 <HAL_NVIC_SetPriority>
 8000bac:	4620      	mov	r0, r4
 8000bae:	4b04      	ldr	r3, [pc, #16]	; (8000bc0 <HAL_InitTick+0x44>)
 8000bb0:	601d      	str	r5, [r3, #0]
 8000bb2:	bd38      	pop	{r3, r4, r5, pc}
 8000bb4:	2001      	movs	r0, #1
 8000bb6:	e7fc      	b.n	8000bb2 <HAL_InitTick+0x36>
 8000bb8:	2000000c 	.word	0x2000000c
 8000bbc:	20000008 	.word	0x20000008
 8000bc0:	20000010 	.word	0x20000010

08000bc4 <HAL_Init>:
 8000bc4:	4a07      	ldr	r2, [pc, #28]	; (8000be4 <HAL_Init+0x20>)
 8000bc6:	b508      	push	{r3, lr}
 8000bc8:	6813      	ldr	r3, [r2, #0]
 8000bca:	2003      	movs	r0, #3
 8000bcc:	f043 0310 	orr.w	r3, r3, #16
 8000bd0:	6013      	str	r3, [r2, #0]
 8000bd2:	f000 f82d 	bl	8000c30 <HAL_NVIC_SetPriorityGrouping>
 8000bd6:	200f      	movs	r0, #15
 8000bd8:	f7ff ffd0 	bl	8000b7c <HAL_InitTick>
 8000bdc:	f7ff ff70 	bl	8000ac0 <HAL_MspInit>
 8000be0:	2000      	movs	r0, #0
 8000be2:	bd08      	pop	{r3, pc}
 8000be4:	40022000 	.word	0x40022000

08000be8 <HAL_IncTick>:
 8000be8:	4a03      	ldr	r2, [pc, #12]	; (8000bf8 <HAL_IncTick+0x10>)
 8000bea:	4b04      	ldr	r3, [pc, #16]	; (8000bfc <HAL_IncTick+0x14>)
 8000bec:	6811      	ldr	r1, [r2, #0]
 8000bee:	781b      	ldrb	r3, [r3, #0]
 8000bf0:	440b      	add	r3, r1
 8000bf2:	6013      	str	r3, [r2, #0]
 8000bf4:	4770      	bx	lr
 8000bf6:	bf00      	nop
 8000bf8:	200000b8 	.word	0x200000b8
 8000bfc:	2000000c 	.word	0x2000000c

08000c00 <HAL_GetTick>:
 8000c00:	4b01      	ldr	r3, [pc, #4]	; (8000c08 <HAL_GetTick+0x8>)
 8000c02:	6818      	ldr	r0, [r3, #0]
 8000c04:	4770      	bx	lr
 8000c06:	bf00      	nop
 8000c08:	200000b8 	.word	0x200000b8

08000c0c <HAL_Delay>:
 8000c0c:	b538      	push	{r3, r4, r5, lr}
 8000c0e:	4604      	mov	r4, r0
 8000c10:	f7ff fff6 	bl	8000c00 <HAL_GetTick>
 8000c14:	4605      	mov	r5, r0
 8000c16:	1c63      	adds	r3, r4, #1
 8000c18:	bf1e      	ittt	ne
 8000c1a:	4b04      	ldrne	r3, [pc, #16]	; (8000c2c <HAL_Delay+0x20>)
 8000c1c:	781b      	ldrbne	r3, [r3, #0]
 8000c1e:	18e4      	addne	r4, r4, r3
 8000c20:	f7ff ffee 	bl	8000c00 <HAL_GetTick>
 8000c24:	1b43      	subs	r3, r0, r5
 8000c26:	42a3      	cmp	r3, r4
 8000c28:	d3fa      	bcc.n	8000c20 <HAL_Delay+0x14>
 8000c2a:	bd38      	pop	{r3, r4, r5, pc}
 8000c2c:	2000000c 	.word	0x2000000c

08000c30 <HAL_NVIC_SetPriorityGrouping>:
 8000c30:	4907      	ldr	r1, [pc, #28]	; (8000c50 <HAL_NVIC_SetPriorityGrouping+0x20>)
 8000c32:	0203      	lsls	r3, r0, #8
 8000c34:	68ca      	ldr	r2, [r1, #12]
 8000c36:	f403 63e0 	and.w	r3, r3, #1792	; 0x700
 8000c3a:	f422 62e0 	bic.w	r2, r2, #1792	; 0x700
 8000c3e:	0412      	lsls	r2, r2, #16
 8000c40:	0c12      	lsrs	r2, r2, #16
 8000c42:	4313      	orrs	r3, r2
 8000c44:	f043 63bf 	orr.w	r3, r3, #100139008	; 0x5f80000
 8000c48:	f443 3300 	orr.w	r3, r3, #131072	; 0x20000
 8000c4c:	60cb      	str	r3, [r1, #12]
 8000c4e:	4770      	bx	lr
 8000c50:	e000ed00 	.word	0xe000ed00

08000c54 <HAL_NVIC_SetPriority>:
 8000c54:	4b16      	ldr	r3, [pc, #88]	; (8000cb0 <HAL_NVIC_SetPriority+0x5c>)
 8000c56:	b530      	push	{r4, r5, lr}
 8000c58:	68dc      	ldr	r4, [r3, #12]
 8000c5a:	f3c4 2402 	ubfx	r4, r4, #8, #3
 8000c5e:	f1c4 0307 	rsb	r3, r4, #7
 8000c62:	1d25      	adds	r5, r4, #4
 8000c64:	2b04      	cmp	r3, #4
 8000c66:	bf28      	it	cs
 8000c68:	2304      	movcs	r3, #4
 8000c6a:	2d06      	cmp	r5, #6
 8000c6c:	f04f 35ff 	mov.w	r5, #4294967295
 8000c70:	bf98      	it	ls
 8000c72:	2400      	movls	r4, #0
 8000c74:	fa05 f303 	lsl.w	r3, r5, r3
 8000c78:	bf88      	it	hi
 8000c7a:	3c03      	subhi	r4, #3
 8000c7c:	ea21 0303 	bic.w	r3, r1, r3
 8000c80:	40a3      	lsls	r3, r4
 8000c82:	fa05 f404 	lsl.w	r4, r5, r4
 8000c86:	ea22 0204 	bic.w	r2, r2, r4
 8000c8a:	2800      	cmp	r0, #0
 8000c8c:	ea43 0302 	orr.w	r3, r3, r2
 8000c90:	bfac      	ite	ge
 8000c92:	f100 4060 	addge.w	r0, r0, #3758096384	; 0xe0000000
 8000c96:	4a07      	ldrlt	r2, [pc, #28]	; (8000cb4 <HAL_NVIC_SetPriority+0x60>)
 8000c98:	ea4f 1303 	mov.w	r3, r3, lsl #4
 8000c9c:	b2db      	uxtb	r3, r3
 8000c9e:	bfab      	itete	ge
 8000ca0:	f500 4061 	addge.w	r0, r0, #57600	; 0xe100
 8000ca4:	f000 000f 	andlt.w	r0, r0, #15
 8000ca8:	f880 3300 	strbge.w	r3, [r0, #768]	; 0x300
 8000cac:	5413      	strblt	r3, [r2, r0]
 8000cae:	bd30      	pop	{r4, r5, pc}
 8000cb0:	e000ed00 	.word	0xe000ed00
 8000cb4:	e000ed14 	.word	0xe000ed14

08000cb8 <HAL_NVIC_EnableIRQ>:
 8000cb8:	2800      	cmp	r0, #0
 8000cba:	db08      	blt.n	8000cce <HAL_NVIC_EnableIRQ+0x16>
 8000cbc:	2301      	movs	r3, #1
 8000cbe:	0942      	lsrs	r2, r0, #5
 8000cc0:	f000 001f 	and.w	r0, r0, #31
 8000cc4:	fa03 f000 	lsl.w	r0, r3, r0
 8000cc8:	4b01      	ldr	r3, [pc, #4]	; (8000cd0 <HAL_NVIC_EnableIRQ+0x18>)
 8000cca:	f843 0022 	str.w	r0, [r3, r2, lsl #2]
 8000cce:	4770      	bx	lr
 8000cd0:	e000e100 	.word	0xe000e100

08000cd4 <HAL_SYSTICK_Config>:
 8000cd4:	3801      	subs	r0, #1
 8000cd6:	f1b0 7f80 	cmp.w	r0, #16777216	; 0x1000000
 8000cda:	d20b      	bcs.n	8000cf4 <HAL_SYSTICK_Config+0x20>
 8000cdc:	f04f 23e0 	mov.w	r3, #3758153728	; 0xe000e000
 8000ce0:	21f0      	movs	r1, #240	; 0xf0
 8000ce2:	4a05      	ldr	r2, [pc, #20]	; (8000cf8 <HAL_SYSTICK_Config+0x24>)
 8000ce4:	6158      	str	r0, [r3, #20]
 8000ce6:	f882 1023 	strb.w	r1, [r2, #35]	; 0x23
 8000cea:	2000      	movs	r0, #0
 8000cec:	2207      	movs	r2, #7
 8000cee:	6198      	str	r0, [r3, #24]
 8000cf0:	611a      	str	r2, [r3, #16]
 8000cf2:	4770      	bx	lr
 8000cf4:	2001      	movs	r0, #1
 8000cf6:	4770      	bx	lr
 8000cf8:	e000ed00 	.word	0xe000ed00

08000cfc <HAL_DMA_Start_IT>:
 8000cfc:	b5f0      	push	{r4, r5, r6, r7, lr}
 8000cfe:	f890 4020 	ldrb.w	r4, [r0, #32]
 8000d02:	2c01      	cmp	r4, #1
 8000d04:	d034      	beq.n	8000d70 <HAL_DMA_Start_IT+0x74>
 8000d06:	2401      	movs	r4, #1
 8000d08:	f890 5021 	ldrb.w	r5, [r0, #33]	; 0x21
 8000d0c:	f880 4020 	strb.w	r4, [r0, #32]
 8000d10:	42a5      	cmp	r5, r4
 8000d12:	f04f 0600 	mov.w	r6, #0
 8000d16:	f04f 0402 	mov.w	r4, #2
 8000d1a:	d127      	bne.n	8000d6c <HAL_DMA_Start_IT+0x70>
 8000d1c:	f880 4021 	strb.w	r4, [r0, #33]	; 0x21
 8000d20:	6804      	ldr	r4, [r0, #0]
 8000d22:	6386      	str	r6, [r0, #56]	; 0x38
 8000d24:	6826      	ldr	r6, [r4, #0]
 8000d26:	f026 0601 	bic.w	r6, r6, #1
 8000d2a:	6026      	str	r6, [r4, #0]
 8000d2c:	e9d0 670f 	ldrd	r6, r7, [r0, #60]	; 0x3c
 8000d30:	40bd      	lsls	r5, r7
 8000d32:	6075      	str	r5, [r6, #4]
 8000d34:	6063      	str	r3, [r4, #4]
 8000d36:	6843      	ldr	r3, [r0, #4]
 8000d38:	2b10      	cmp	r3, #16
 8000d3a:	6ac3      	ldr	r3, [r0, #44]	; 0x2c
 8000d3c:	bf0b      	itete	eq
 8000d3e:	60a2      	streq	r2, [r4, #8]
 8000d40:	60a1      	strne	r1, [r4, #8]
 8000d42:	60e1      	streq	r1, [r4, #12]
 8000d44:	60e2      	strne	r2, [r4, #12]
 8000d46:	b14b      	cbz	r3, 8000d5c <HAL_DMA_Start_IT+0x60>
 8000d48:	6823      	ldr	r3, [r4, #0]
 8000d4a:	f043 030e 	orr.w	r3, r3, #14
 8000d4e:	2000      	movs	r0, #0
 8000d50:	6023      	str	r3, [r4, #0]
 8000d52:	6823      	ldr	r3, [r4, #0]
 8000d54:	f043 0301 	orr.w	r3, r3, #1
 8000d58:	6023      	str	r3, [r4, #0]
 8000d5a:	bdf0      	pop	{r4, r5, r6, r7, pc}
 8000d5c:	6823      	ldr	r3, [r4, #0]
 8000d5e:	f023 0304 	bic.w	r3, r3, #4
 8000d62:	6023      	str	r3, [r4, #0]
 8000d64:	6823      	ldr	r3, [r4, #0]
 8000d66:	f043 030a 	orr.w	r3, r3, #10
 8000d6a:	e7f0      	b.n	8000d4e <HAL_DMA_Start_IT+0x52>
 8000d6c:	f880 6020 	strb.w	r6, [r0, #32]
 8000d70:	2002      	movs	r0, #2
 8000d72:	e7f2      	b.n	8000d5a <HAL_DMA_Start_IT+0x5e>

08000d74 <HAL_GPIO_Init>:
 8000d74:	e92d 4ff7 	stmdb	sp!, {r0, r1, r2, r4, r5, r6, r7, r8, r9, sl, fp, lr}
 8000d78:	2200      	movs	r2, #0
 8000d7a:	4616      	mov	r6, r2
 8000d7c:	4f64      	ldr	r7, [pc, #400]	; (8000f10 <HAL_GPIO_Init+0x19c>)
 8000d7e:	4b65      	ldr	r3, [pc, #404]	; (8000f14 <HAL_GPIO_Init+0x1a0>)
 8000d80:	f8df c194 	ldr.w	ip, [pc, #404]	; 8000f18 <HAL_GPIO_Init+0x1a4>
 8000d84:	f8df e194 	ldr.w	lr, [pc, #404]	; 8000f1c <HAL_GPIO_Init+0x1a8>
 8000d88:	680d      	ldr	r5, [r1, #0]
 8000d8a:	fa35 f406 	lsrs.w	r4, r5, r6
 8000d8e:	d102      	bne.n	8000d96 <HAL_GPIO_Init+0x22>
 8000d90:	b003      	add	sp, #12
 8000d92:	e8bd 8ff0 	ldmia.w	sp!, {r4, r5, r6, r7, r8, r9, sl, fp, pc}
 8000d96:	f04f 0801 	mov.w	r8, #1
 8000d9a:	fa08 f806 	lsl.w	r8, r8, r6
 8000d9e:	ea05 0408 	and.w	r4, r5, r8
 8000da2:	ea38 0505 	bics.w	r5, r8, r5
 8000da6:	d17b      	bne.n	8000ea0 <HAL_GPIO_Init+0x12c>
 8000da8:	684d      	ldr	r5, [r1, #4]
 8000daa:	2d03      	cmp	r5, #3
 8000dac:	d807      	bhi.n	8000dbe <HAL_GPIO_Init+0x4a>
 8000dae:	3d01      	subs	r5, #1
 8000db0:	2d02      	cmp	r5, #2
 8000db2:	f200 8088 	bhi.w	8000ec6 <HAL_GPIO_Init+0x152>
 8000db6:	e8df f005 	tbb	[pc, r5]
 8000dba:	9b96      	.short	0x9b96
 8000dbc:	a1          	.byte	0xa1
 8000dbd:	00          	.byte	0x00
 8000dbe:	2d12      	cmp	r5, #18
 8000dc0:	f000 8099 	beq.w	8000ef6 <HAL_GPIO_Init+0x182>
 8000dc4:	d86e      	bhi.n	8000ea4 <HAL_GPIO_Init+0x130>
 8000dc6:	2d11      	cmp	r5, #17
 8000dc8:	f000 808f 	beq.w	8000eea <HAL_GPIO_Init+0x176>
 8000dcc:	2cff      	cmp	r4, #255	; 0xff
 8000dce:	bf98      	it	ls
 8000dd0:	4682      	movls	sl, r0
 8000dd2:	f04f 090f 	mov.w	r9, #15
 8000dd6:	bf88      	it	hi
 8000dd8:	f100 0a04 	addhi.w	sl, r0, #4
 8000ddc:	ea4f 0586 	mov.w	r5, r6, lsl #2
 8000de0:	f8da 8000 	ldr.w	r8, [sl]
 8000de4:	bf88      	it	hi
 8000de6:	3d20      	subhi	r5, #32
 8000de8:	fa09 fb05 	lsl.w	fp, r9, r5
 8000dec:	ea28 080b 	bic.w	r8, r8, fp
 8000df0:	fa02 f505 	lsl.w	r5, r2, r5
 8000df4:	ea48 0505 	orr.w	r5, r8, r5
 8000df8:	f8ca 5000 	str.w	r5, [sl]
 8000dfc:	f8d1 a004 	ldr.w	sl, [r1, #4]
 8000e00:	f01a 5f80 	tst.w	sl, #268435456	; 0x10000000
 8000e04:	d04c      	beq.n	8000ea0 <HAL_GPIO_Init+0x12c>
 8000e06:	69bd      	ldr	r5, [r7, #24]
 8000e08:	f026 0803 	bic.w	r8, r6, #3
 8000e0c:	f045 0501 	orr.w	r5, r5, #1
 8000e10:	61bd      	str	r5, [r7, #24]
 8000e12:	69bd      	ldr	r5, [r7, #24]
 8000e14:	f108 4880 	add.w	r8, r8, #1073741824	; 0x40000000
 8000e18:	f005 0501 	and.w	r5, r5, #1
 8000e1c:	9501      	str	r5, [sp, #4]
 8000e1e:	f508 3880 	add.w	r8, r8, #65536	; 0x10000
 8000e22:	f006 0b03 	and.w	fp, r6, #3
 8000e26:	9d01      	ldr	r5, [sp, #4]
 8000e28:	ea4f 0b8b 	mov.w	fp, fp, lsl #2
 8000e2c:	f8d8 5008 	ldr.w	r5, [r8, #8]
 8000e30:	fa09 f90b 	lsl.w	r9, r9, fp
 8000e34:	ea25 0909 	bic.w	r9, r5, r9
 8000e38:	4d39      	ldr	r5, [pc, #228]	; (8000f20 <HAL_GPIO_Init+0x1ac>)
 8000e3a:	42a8      	cmp	r0, r5
 8000e3c:	d062      	beq.n	8000f04 <HAL_GPIO_Init+0x190>
 8000e3e:	f505 6580 	add.w	r5, r5, #1024	; 0x400
 8000e42:	42a8      	cmp	r0, r5
 8000e44:	d060      	beq.n	8000f08 <HAL_GPIO_Init+0x194>
 8000e46:	f505 6580 	add.w	r5, r5, #1024	; 0x400
 8000e4a:	42a8      	cmp	r0, r5
 8000e4c:	d05e      	beq.n	8000f0c <HAL_GPIO_Init+0x198>
 8000e4e:	f505 6580 	add.w	r5, r5, #1024	; 0x400
 8000e52:	42a8      	cmp	r0, r5
 8000e54:	bf0c      	ite	eq
 8000e56:	2503      	moveq	r5, #3
 8000e58:	2504      	movne	r5, #4
 8000e5a:	fa05 f50b 	lsl.w	r5, r5, fp
 8000e5e:	ea45 0509 	orr.w	r5, r5, r9
 8000e62:	f8c8 5008 	str.w	r5, [r8, #8]
 8000e66:	681d      	ldr	r5, [r3, #0]
 8000e68:	f41a 3f80 	tst.w	sl, #65536	; 0x10000
 8000e6c:	bf14      	ite	ne
 8000e6e:	4325      	orrne	r5, r4
 8000e70:	43a5      	biceq	r5, r4
 8000e72:	601d      	str	r5, [r3, #0]
 8000e74:	685d      	ldr	r5, [r3, #4]
 8000e76:	f41a 3f00 	tst.w	sl, #131072	; 0x20000
 8000e7a:	bf14      	ite	ne
 8000e7c:	4325      	orrne	r5, r4
 8000e7e:	43a5      	biceq	r5, r4
 8000e80:	605d      	str	r5, [r3, #4]
 8000e82:	689d      	ldr	r5, [r3, #8]
 8000e84:	f41a 1f80 	tst.w	sl, #1048576	; 0x100000
 8000e88:	bf14      	ite	ne
 8000e8a:	4325      	orrne	r5, r4
 8000e8c:	43a5      	biceq	r5, r4
 8000e8e:	609d      	str	r5, [r3, #8]
 8000e90:	68dd      	ldr	r5, [r3, #12]
 8000e92:	f41a 1f00 	tst.w	sl, #2097152	; 0x200000
 8000e96:	bf14      	ite	ne
 8000e98:	432c      	orrne	r4, r5
 8000e9a:	ea25 0404 	biceq.w	r4, r5, r4
 8000e9e:	60dc      	str	r4, [r3, #12]
 8000ea0:	3601      	adds	r6, #1
 8000ea2:	e771      	b.n	8000d88 <HAL_GPIO_Init+0x14>
 8000ea4:	f8df 907c 	ldr.w	r9, [pc, #124]	; 8000f24 <HAL_GPIO_Init+0x1b0>
 8000ea8:	454d      	cmp	r5, r9
 8000eaa:	d00c      	beq.n	8000ec6 <HAL_GPIO_Init+0x152>
 8000eac:	d817      	bhi.n	8000ede <HAL_GPIO_Init+0x16a>
 8000eae:	f5a9 1980 	sub.w	r9, r9, #1048576	; 0x100000
 8000eb2:	454d      	cmp	r5, r9
 8000eb4:	d007      	beq.n	8000ec6 <HAL_GPIO_Init+0x152>
 8000eb6:	f509 2970 	add.w	r9, r9, #983040	; 0xf0000
 8000eba:	454d      	cmp	r5, r9
 8000ebc:	d003      	beq.n	8000ec6 <HAL_GPIO_Init+0x152>
 8000ebe:	f5a9 1980 	sub.w	r9, r9, #1048576	; 0x100000
 8000ec2:	454d      	cmp	r5, r9
 8000ec4:	d182      	bne.n	8000dcc <HAL_GPIO_Init+0x58>
 8000ec6:	688a      	ldr	r2, [r1, #8]
 8000ec8:	b1d2      	cbz	r2, 8000f00 <HAL_GPIO_Init+0x18c>
 8000eca:	2a01      	cmp	r2, #1
 8000ecc:	bf08      	it	eq
 8000ece:	f8c0 8010 	streq.w	r8, [r0, #16]
 8000ed2:	f04f 0208 	mov.w	r2, #8
 8000ed6:	bf18      	it	ne
 8000ed8:	f8c0 8014 	strne.w	r8, [r0, #20]
 8000edc:	e776      	b.n	8000dcc <HAL_GPIO_Init+0x58>
 8000ede:	4565      	cmp	r5, ip
 8000ee0:	d0f1      	beq.n	8000ec6 <HAL_GPIO_Init+0x152>
 8000ee2:	4575      	cmp	r5, lr
 8000ee4:	e7ee      	b.n	8000ec4 <HAL_GPIO_Init+0x150>
 8000ee6:	68ca      	ldr	r2, [r1, #12]
 8000ee8:	e770      	b.n	8000dcc <HAL_GPIO_Init+0x58>
 8000eea:	68ca      	ldr	r2, [r1, #12]
 8000eec:	3204      	adds	r2, #4
 8000eee:	e76d      	b.n	8000dcc <HAL_GPIO_Init+0x58>
 8000ef0:	68ca      	ldr	r2, [r1, #12]
 8000ef2:	3208      	adds	r2, #8
 8000ef4:	e76a      	b.n	8000dcc <HAL_GPIO_Init+0x58>
 8000ef6:	68ca      	ldr	r2, [r1, #12]
 8000ef8:	320c      	adds	r2, #12
 8000efa:	e767      	b.n	8000dcc <HAL_GPIO_Init+0x58>
 8000efc:	2200      	movs	r2, #0
 8000efe:	e765      	b.n	8000dcc <HAL_GPIO_Init+0x58>
 8000f00:	2204      	movs	r2, #4
 8000f02:	e763      	b.n	8000dcc <HAL_GPIO_Init+0x58>
 8000f04:	2500      	movs	r5, #0
 8000f06:	e7a8      	b.n	8000e5a <HAL_GPIO_Init+0xe6>
 8000f08:	2501      	movs	r5, #1
 8000f0a:	e7a6      	b.n	8000e5a <HAL_GPIO_Init+0xe6>
 8000f0c:	2502      	movs	r5, #2
 8000f0e:	e7a4      	b.n	8000e5a <HAL_GPIO_Init+0xe6>
 8000f10:	40021000 	.word	0x40021000
 8000f14:	40010400 	.word	0x40010400
 8000f18:	10310000 	.word	0x10310000
 8000f1c:	10320000 	.word	0x10320000
 8000f20:	40010800 	.word	0x40010800
 8000f24:	10220000 	.word	0x10220000

08000f28 <HAL_GPIO_WritePin>:
 8000f28:	b10a      	cbz	r2, 8000f2e <HAL_GPIO_WritePin+0x6>
 8000f2a:	6101      	str	r1, [r0, #16]
 8000f2c:	4770      	bx	lr
 8000f2e:	0409      	lsls	r1, r1, #16
 8000f30:	e7fb      	b.n	8000f2a <HAL_GPIO_WritePin+0x2>

08000f32 <HAL_GPIO_EXTI_Callback>:
 8000f32:	4770      	bx	lr

08000f34 <HAL_GPIO_EXTI_IRQHandler>:
 8000f34:	4a04      	ldr	r2, [pc, #16]	; (8000f48 <HAL_GPIO_EXTI_IRQHandler+0x14>)
 8000f36:	b508      	push	{r3, lr}
 8000f38:	6951      	ldr	r1, [r2, #20]
 8000f3a:	4201      	tst	r1, r0
 8000f3c:	d002      	beq.n	8000f44 <HAL_GPIO_EXTI_IRQHandler+0x10>
 8000f3e:	6150      	str	r0, [r2, #20]
 8000f40:	f7ff fff7 	bl	8000f32 <HAL_GPIO_EXTI_Callback>
 8000f44:	bd08      	pop	{r3, pc}
 8000f46:	bf00      	nop
 8000f48:	40010400 	.word	0x40010400

08000f4c <HAL_PWR_EnableBkUpAccess>:
 8000f4c:	2201      	movs	r2, #1
 8000f4e:	4b01      	ldr	r3, [pc, #4]	; (8000f54 <HAL_PWR_EnableBkUpAccess+0x8>)
 8000f50:	621a      	str	r2, [r3, #32]
 8000f52:	4770      	bx	lr
 8000f54:	420e0000 	.word	0x420e0000

08000f58 <HAL_RCC_OscConfig>:
 8000f58:	e92d 41f3 	stmdb	sp!, {r0, r1, r4, r5, r6, r7, r8, lr}
 8000f5c:	4605      	mov	r5, r0
 8000f5e:	b338      	cbz	r0, 8000fb0 <HAL_RCC_OscConfig+0x58>
 8000f60:	6803      	ldr	r3, [r0, #0]
 8000f62:	07db      	lsls	r3, r3, #31
 8000f64:	d410      	bmi.n	8000f88 <HAL_RCC_OscConfig+0x30>
 8000f66:	682b      	ldr	r3, [r5, #0]
 8000f68:	079f      	lsls	r7, r3, #30
 8000f6a:	d45e      	bmi.n	800102a <HAL_RCC_OscConfig+0xd2>
 8000f6c:	682b      	ldr	r3, [r5, #0]
 8000f6e:	0719      	lsls	r1, r3, #28
 8000f70:	f100 8095 	bmi.w	800109e <HAL_RCC_OscConfig+0x146>
 8000f74:	682b      	ldr	r3, [r5, #0]
 8000f76:	075a      	lsls	r2, r3, #29
 8000f78:	f100 80c1 	bmi.w	80010fe <HAL_RCC_OscConfig+0x1a6>
 8000f7c:	69e8      	ldr	r0, [r5, #28]
 8000f7e:	2800      	cmp	r0, #0
 8000f80:	f040 812c 	bne.w	80011dc <HAL_RCC_OscConfig+0x284>
 8000f84:	2000      	movs	r0, #0
 8000f86:	e029      	b.n	8000fdc <HAL_RCC_OscConfig+0x84>
 8000f88:	4c90      	ldr	r4, [pc, #576]	; (80011cc <HAL_RCC_OscConfig+0x274>)
 8000f8a:	6863      	ldr	r3, [r4, #4]
 8000f8c:	f003 030c 	and.w	r3, r3, #12
 8000f90:	2b04      	cmp	r3, #4
 8000f92:	d007      	beq.n	8000fa4 <HAL_RCC_OscConfig+0x4c>
 8000f94:	6863      	ldr	r3, [r4, #4]
 8000f96:	f003 030c 	and.w	r3, r3, #12
 8000f9a:	2b08      	cmp	r3, #8
 8000f9c:	d10a      	bne.n	8000fb4 <HAL_RCC_OscConfig+0x5c>
 8000f9e:	6863      	ldr	r3, [r4, #4]
 8000fa0:	03de      	lsls	r6, r3, #15
 8000fa2:	d507      	bpl.n	8000fb4 <HAL_RCC_OscConfig+0x5c>
 8000fa4:	6823      	ldr	r3, [r4, #0]
 8000fa6:	039c      	lsls	r4, r3, #14
 8000fa8:	d5dd      	bpl.n	8000f66 <HAL_RCC_OscConfig+0xe>
 8000faa:	686b      	ldr	r3, [r5, #4]
 8000fac:	2b00      	cmp	r3, #0
 8000fae:	d1da      	bne.n	8000f66 <HAL_RCC_OscConfig+0xe>
 8000fb0:	2001      	movs	r0, #1
 8000fb2:	e013      	b.n	8000fdc <HAL_RCC_OscConfig+0x84>
 8000fb4:	686b      	ldr	r3, [r5, #4]
 8000fb6:	f5b3 3f80 	cmp.w	r3, #65536	; 0x10000
 8000fba:	d112      	bne.n	8000fe2 <HAL_RCC_OscConfig+0x8a>
 8000fbc:	6823      	ldr	r3, [r4, #0]
 8000fbe:	f443 3380 	orr.w	r3, r3, #65536	; 0x10000
 8000fc2:	6023      	str	r3, [r4, #0]
 8000fc4:	f7ff fe1c 	bl	8000c00 <HAL_GetTick>
 8000fc8:	4606      	mov	r6, r0
 8000fca:	6823      	ldr	r3, [r4, #0]
 8000fcc:	0398      	lsls	r0, r3, #14
 8000fce:	d4ca      	bmi.n	8000f66 <HAL_RCC_OscConfig+0xe>
 8000fd0:	f7ff fe16 	bl	8000c00 <HAL_GetTick>
 8000fd4:	1b80      	subs	r0, r0, r6
 8000fd6:	2864      	cmp	r0, #100	; 0x64
 8000fd8:	d9f7      	bls.n	8000fca <HAL_RCC_OscConfig+0x72>
 8000fda:	2003      	movs	r0, #3
 8000fdc:	b002      	add	sp, #8
 8000fde:	e8bd 81f0 	ldmia.w	sp!, {r4, r5, r6, r7, r8, pc}
 8000fe2:	b99b      	cbnz	r3, 800100c <HAL_RCC_OscConfig+0xb4>
 8000fe4:	6823      	ldr	r3, [r4, #0]
 8000fe6:	f423 3380 	bic.w	r3, r3, #65536	; 0x10000
 8000fea:	6023      	str	r3, [r4, #0]
 8000fec:	6823      	ldr	r3, [r4, #0]
 8000fee:	f423 2380 	bic.w	r3, r3, #262144	; 0x40000
 8000ff2:	6023      	str	r3, [r4, #0]
 8000ff4:	f7ff fe04 	bl	8000c00 <HAL_GetTick>
 8000ff8:	4606      	mov	r6, r0
 8000ffa:	6823      	ldr	r3, [r4, #0]
 8000ffc:	0399      	lsls	r1, r3, #14
 8000ffe:	d5b2      	bpl.n	8000f66 <HAL_RCC_OscConfig+0xe>
 8001000:	f7ff fdfe 	bl	8000c00 <HAL_GetTick>
 8001004:	1b80      	subs	r0, r0, r6
 8001006:	2864      	cmp	r0, #100	; 0x64
 8001008:	d9f7      	bls.n	8000ffa <HAL_RCC_OscConfig+0xa2>
 800100a:	e7e6      	b.n	8000fda <HAL_RCC_OscConfig+0x82>
 800100c:	f5b3 2fa0 	cmp.w	r3, #327680	; 0x50000
 8001010:	6823      	ldr	r3, [r4, #0]
 8001012:	d103      	bne.n	800101c <HAL_RCC_OscConfig+0xc4>
 8001014:	f443 2380 	orr.w	r3, r3, #262144	; 0x40000
 8001018:	6023      	str	r3, [r4, #0]
 800101a:	e7cf      	b.n	8000fbc <HAL_RCC_OscConfig+0x64>
 800101c:	f423 3380 	bic.w	r3, r3, #65536	; 0x10000
 8001020:	6023      	str	r3, [r4, #0]
 8001022:	6823      	ldr	r3, [r4, #0]
 8001024:	f423 2380 	bic.w	r3, r3, #262144	; 0x40000
 8001028:	e7cb      	b.n	8000fc2 <HAL_RCC_OscConfig+0x6a>
 800102a:	4c68      	ldr	r4, [pc, #416]	; (80011cc <HAL_RCC_OscConfig+0x274>)
 800102c:	6863      	ldr	r3, [r4, #4]
 800102e:	f013 0f0c 	tst.w	r3, #12
 8001032:	d007      	beq.n	8001044 <HAL_RCC_OscConfig+0xec>
 8001034:	6863      	ldr	r3, [r4, #4]
 8001036:	f003 030c 	and.w	r3, r3, #12
 800103a:	2b08      	cmp	r3, #8
 800103c:	d110      	bne.n	8001060 <HAL_RCC_OscConfig+0x108>
 800103e:	6863      	ldr	r3, [r4, #4]
 8001040:	03da      	lsls	r2, r3, #15
 8001042:	d40d      	bmi.n	8001060 <HAL_RCC_OscConfig+0x108>
 8001044:	6823      	ldr	r3, [r4, #0]
 8001046:	079b      	lsls	r3, r3, #30
 8001048:	d502      	bpl.n	8001050 <HAL_RCC_OscConfig+0xf8>
 800104a:	692b      	ldr	r3, [r5, #16]
 800104c:	2b01      	cmp	r3, #1
 800104e:	d1af      	bne.n	8000fb0 <HAL_RCC_OscConfig+0x58>
 8001050:	6823      	ldr	r3, [r4, #0]
 8001052:	696a      	ldr	r2, [r5, #20]
 8001054:	f023 03f8 	bic.w	r3, r3, #248	; 0xf8
 8001058:	ea43 03c2 	orr.w	r3, r3, r2, lsl #3
 800105c:	6023      	str	r3, [r4, #0]
 800105e:	e785      	b.n	8000f6c <HAL_RCC_OscConfig+0x14>
 8001060:	692a      	ldr	r2, [r5, #16]
 8001062:	4b5b      	ldr	r3, [pc, #364]	; (80011d0 <HAL_RCC_OscConfig+0x278>)
 8001064:	b16a      	cbz	r2, 8001082 <HAL_RCC_OscConfig+0x12a>
 8001066:	2201      	movs	r2, #1
 8001068:	601a      	str	r2, [r3, #0]
 800106a:	f7ff fdc9 	bl	8000c00 <HAL_GetTick>
 800106e:	4606      	mov	r6, r0
 8001070:	6823      	ldr	r3, [r4, #0]
 8001072:	079f      	lsls	r7, r3, #30
 8001074:	d4ec      	bmi.n	8001050 <HAL_RCC_OscConfig+0xf8>
 8001076:	f7ff fdc3 	bl	8000c00 <HAL_GetTick>
 800107a:	1b80      	subs	r0, r0, r6
 800107c:	2802      	cmp	r0, #2
 800107e:	d9f7      	bls.n	8001070 <HAL_RCC_OscConfig+0x118>
 8001080:	e7ab      	b.n	8000fda <HAL_RCC_OscConfig+0x82>
 8001082:	601a      	str	r2, [r3, #0]
 8001084:	f7ff fdbc 	bl	8000c00 <HAL_GetTick>
 8001088:	4606      	mov	r6, r0
 800108a:	6823      	ldr	r3, [r4, #0]
 800108c:	0798      	lsls	r0, r3, #30
 800108e:	f57f af6d 	bpl.w	8000f6c <HAL_RCC_OscConfig+0x14>
 8001092:	f7ff fdb5 	bl	8000c00 <HAL_GetTick>
 8001096:	1b80      	subs	r0, r0, r6
 8001098:	2802      	cmp	r0, #2
 800109a:	d9f6      	bls.n	800108a <HAL_RCC_OscConfig+0x132>
 800109c:	e79d      	b.n	8000fda <HAL_RCC_OscConfig+0x82>
 800109e:	69aa      	ldr	r2, [r5, #24]
 80010a0:	4e4a      	ldr	r6, [pc, #296]	; (80011cc <HAL_RCC_OscConfig+0x274>)
 80010a2:	4b4b      	ldr	r3, [pc, #300]	; (80011d0 <HAL_RCC_OscConfig+0x278>)
 80010a4:	b1e2      	cbz	r2, 80010e0 <HAL_RCC_OscConfig+0x188>
 80010a6:	2201      	movs	r2, #1
 80010a8:	f8c3 2480 	str.w	r2, [r3, #1152]	; 0x480
 80010ac:	f7ff fda8 	bl	8000c00 <HAL_GetTick>
 80010b0:	4604      	mov	r4, r0
 80010b2:	6a73      	ldr	r3, [r6, #36]	; 0x24
 80010b4:	079b      	lsls	r3, r3, #30
 80010b6:	d50d      	bpl.n	80010d4 <HAL_RCC_OscConfig+0x17c>
 80010b8:	f44f 52fa 	mov.w	r2, #8000	; 0x1f40
 80010bc:	4b45      	ldr	r3, [pc, #276]	; (80011d4 <HAL_RCC_OscConfig+0x27c>)
 80010be:	681b      	ldr	r3, [r3, #0]
 80010c0:	fbb3 f3f2 	udiv	r3, r3, r2
 80010c4:	9301      	str	r3, [sp, #4]
 80010c6:	bf00      	nop
 80010c8:	9b01      	ldr	r3, [sp, #4]
 80010ca:	1e5a      	subs	r2, r3, #1
 80010cc:	9201      	str	r2, [sp, #4]
 80010ce:	2b00      	cmp	r3, #0
 80010d0:	d1f9      	bne.n	80010c6 <HAL_RCC_OscConfig+0x16e>
 80010d2:	e74f      	b.n	8000f74 <HAL_RCC_OscConfig+0x1c>
 80010d4:	f7ff fd94 	bl	8000c00 <HAL_GetTick>
 80010d8:	1b00      	subs	r0, r0, r4
 80010da:	2802      	cmp	r0, #2
 80010dc:	d9e9      	bls.n	80010b2 <HAL_RCC_OscConfig+0x15a>
 80010de:	e77c      	b.n	8000fda <HAL_RCC_OscConfig+0x82>
 80010e0:	f8c3 2480 	str.w	r2, [r3, #1152]	; 0x480
 80010e4:	f7ff fd8c 	bl	8000c00 <HAL_GetTick>
 80010e8:	4604      	mov	r4, r0
 80010ea:	6a73      	ldr	r3, [r6, #36]	; 0x24
 80010ec:	079f      	lsls	r7, r3, #30
 80010ee:	f57f af41 	bpl.w	8000f74 <HAL_RCC_OscConfig+0x1c>
 80010f2:	f7ff fd85 	bl	8000c00 <HAL_GetTick>
 80010f6:	1b00      	subs	r0, r0, r4
 80010f8:	2802      	cmp	r0, #2
 80010fa:	d9f6      	bls.n	80010ea <HAL_RCC_OscConfig+0x192>
 80010fc:	e76d      	b.n	8000fda <HAL_RCC_OscConfig+0x82>
 80010fe:	4c33      	ldr	r4, [pc, #204]	; (80011cc <HAL_RCC_OscConfig+0x274>)
 8001100:	69e3      	ldr	r3, [r4, #28]
 8001102:	00d8      	lsls	r0, r3, #3
 8001104:	d424      	bmi.n	8001150 <HAL_RCC_OscConfig+0x1f8>
 8001106:	2701      	movs	r7, #1
 8001108:	69e3      	ldr	r3, [r4, #28]
 800110a:	f043 5380 	orr.w	r3, r3, #268435456	; 0x10000000
 800110e:	61e3      	str	r3, [r4, #28]
 8001110:	69e3      	ldr	r3, [r4, #28]
 8001112:	f003 5380 	and.w	r3, r3, #268435456	; 0x10000000
 8001116:	9300      	str	r3, [sp, #0]
 8001118:	9b00      	ldr	r3, [sp, #0]
 800111a:	4e2f      	ldr	r6, [pc, #188]	; (80011d8 <HAL_RCC_OscConfig+0x280>)
 800111c:	6833      	ldr	r3, [r6, #0]
 800111e:	05d9      	lsls	r1, r3, #23
 8001120:	d518      	bpl.n	8001154 <HAL_RCC_OscConfig+0x1fc>
 8001122:	68eb      	ldr	r3, [r5, #12]
 8001124:	2b01      	cmp	r3, #1
 8001126:	d126      	bne.n	8001176 <HAL_RCC_OscConfig+0x21e>
 8001128:	6a23      	ldr	r3, [r4, #32]
 800112a:	f043 0301 	orr.w	r3, r3, #1
 800112e:	6223      	str	r3, [r4, #32]
 8001130:	f7ff fd66 	bl	8000c00 <HAL_GetTick>
 8001134:	f241 3888 	movw	r8, #5000	; 0x1388
 8001138:	4606      	mov	r6, r0
 800113a:	6a23      	ldr	r3, [r4, #32]
 800113c:	079b      	lsls	r3, r3, #30
 800113e:	d53f      	bpl.n	80011c0 <HAL_RCC_OscConfig+0x268>
 8001140:	2f00      	cmp	r7, #0
 8001142:	f43f af1b 	beq.w	8000f7c <HAL_RCC_OscConfig+0x24>
 8001146:	69e3      	ldr	r3, [r4, #28]
 8001148:	f023 5380 	bic.w	r3, r3, #268435456	; 0x10000000
 800114c:	61e3      	str	r3, [r4, #28]
 800114e:	e715      	b.n	8000f7c <HAL_RCC_OscConfig+0x24>
 8001150:	2700      	movs	r7, #0
 8001152:	e7e2      	b.n	800111a <HAL_RCC_OscConfig+0x1c2>
 8001154:	6833      	ldr	r3, [r6, #0]
 8001156:	f443 7380 	orr.w	r3, r3, #256	; 0x100
 800115a:	6033      	str	r3, [r6, #0]
 800115c:	f7ff fd50 	bl	8000c00 <HAL_GetTick>
 8001160:	4680      	mov	r8, r0
 8001162:	6833      	ldr	r3, [r6, #0]
 8001164:	05da      	lsls	r2, r3, #23
 8001166:	d4dc      	bmi.n	8001122 <HAL_RCC_OscConfig+0x1ca>
 8001168:	f7ff fd4a 	bl	8000c00 <HAL_GetTick>
 800116c:	eba0 0008 	sub.w	r0, r0, r8
 8001170:	2864      	cmp	r0, #100	; 0x64
 8001172:	d9f6      	bls.n	8001162 <HAL_RCC_OscConfig+0x20a>
 8001174:	e731      	b.n	8000fda <HAL_RCC_OscConfig+0x82>
 8001176:	b9ab      	cbnz	r3, 80011a4 <HAL_RCC_OscConfig+0x24c>
 8001178:	6a23      	ldr	r3, [r4, #32]
 800117a:	f241 3888 	movw	r8, #5000	; 0x1388
 800117e:	f023 0301 	bic.w	r3, r3, #1
 8001182:	6223      	str	r3, [r4, #32]
 8001184:	6a23      	ldr	r3, [r4, #32]
 8001186:	f023 0304 	bic.w	r3, r3, #4
 800118a:	6223      	str	r3, [r4, #32]
 800118c:	f7ff fd38 	bl	8000c00 <HAL_GetTick>
 8001190:	4606      	mov	r6, r0
 8001192:	6a23      	ldr	r3, [r4, #32]
 8001194:	0798      	lsls	r0, r3, #30
 8001196:	d5d3      	bpl.n	8001140 <HAL_RCC_OscConfig+0x1e8>
 8001198:	f7ff fd32 	bl	8000c00 <HAL_GetTick>
 800119c:	1b80      	subs	r0, r0, r6
 800119e:	4540      	cmp	r0, r8
 80011a0:	d9f7      	bls.n	8001192 <HAL_RCC_OscConfig+0x23a>
 80011a2:	e71a      	b.n	8000fda <HAL_RCC_OscConfig+0x82>
 80011a4:	2b05      	cmp	r3, #5
 80011a6:	6a23      	ldr	r3, [r4, #32]
 80011a8:	d103      	bne.n	80011b2 <HAL_RCC_OscConfig+0x25a>
 80011aa:	f043 0304 	orr.w	r3, r3, #4
 80011ae:	6223      	str	r3, [r4, #32]
 80011b0:	e7ba      	b.n	8001128 <HAL_RCC_OscConfig+0x1d0>
 80011b2:	f023 0301 	bic.w	r3, r3, #1
 80011b6:	6223      	str	r3, [r4, #32]
 80011b8:	6a23      	ldr	r3, [r4, #32]
 80011ba:	f023 0304 	bic.w	r3, r3, #4
 80011be:	e7b6      	b.n	800112e <HAL_RCC_OscConfig+0x1d6>
 80011c0:	f7ff fd1e 	bl	8000c00 <HAL_GetTick>
 80011c4:	1b80      	subs	r0, r0, r6
 80011c6:	4540      	cmp	r0, r8
 80011c8:	d9b7      	bls.n	800113a <HAL_RCC_OscConfig+0x1e2>
 80011ca:	e706      	b.n	8000fda <HAL_RCC_OscConfig+0x82>
 80011cc:	40021000 	.word	0x40021000
 80011d0:	42420000 	.word	0x42420000
 80011d4:	20000008 	.word	0x20000008
 80011d8:	40007000 	.word	0x40007000
 80011dc:	4c2a      	ldr	r4, [pc, #168]	; (8001288 <HAL_RCC_OscConfig+0x330>)
 80011de:	6863      	ldr	r3, [r4, #4]
 80011e0:	f003 030c 	and.w	r3, r3, #12
 80011e4:	2b08      	cmp	r3, #8
 80011e6:	d03e      	beq.n	8001266 <HAL_RCC_OscConfig+0x30e>
 80011e8:	2200      	movs	r2, #0
 80011ea:	4b28      	ldr	r3, [pc, #160]	; (800128c <HAL_RCC_OscConfig+0x334>)
 80011ec:	2802      	cmp	r0, #2
 80011ee:	661a      	str	r2, [r3, #96]	; 0x60
 80011f0:	d12c      	bne.n	800124c <HAL_RCC_OscConfig+0x2f4>
 80011f2:	f7ff fd05 	bl	8000c00 <HAL_GetTick>
 80011f6:	4606      	mov	r6, r0
 80011f8:	6823      	ldr	r3, [r4, #0]
 80011fa:	0199      	lsls	r1, r3, #6
 80011fc:	d420      	bmi.n	8001240 <HAL_RCC_OscConfig+0x2e8>
 80011fe:	6a2b      	ldr	r3, [r5, #32]
 8001200:	f5b3 3f80 	cmp.w	r3, #65536	; 0x10000
 8001204:	d105      	bne.n	8001212 <HAL_RCC_OscConfig+0x2ba>
 8001206:	6862      	ldr	r2, [r4, #4]
 8001208:	68a9      	ldr	r1, [r5, #8]
 800120a:	f422 3200 	bic.w	r2, r2, #131072	; 0x20000
 800120e:	430a      	orrs	r2, r1
 8001210:	6062      	str	r2, [r4, #4]
 8001212:	6a69      	ldr	r1, [r5, #36]	; 0x24
 8001214:	6862      	ldr	r2, [r4, #4]
 8001216:	430b      	orrs	r3, r1
 8001218:	f422 1274 	bic.w	r2, r2, #3997696	; 0x3d0000
 800121c:	4313      	orrs	r3, r2
 800121e:	2201      	movs	r2, #1
 8001220:	6063      	str	r3, [r4, #4]
 8001222:	4b1a      	ldr	r3, [pc, #104]	; (800128c <HAL_RCC_OscConfig+0x334>)
 8001224:	661a      	str	r2, [r3, #96]	; 0x60
 8001226:	f7ff fceb 	bl	8000c00 <HAL_GetTick>
 800122a:	4605      	mov	r5, r0
 800122c:	6823      	ldr	r3, [r4, #0]
 800122e:	019a      	lsls	r2, r3, #6
 8001230:	f53f aea8 	bmi.w	8000f84 <HAL_RCC_OscConfig+0x2c>
 8001234:	f7ff fce4 	bl	8000c00 <HAL_GetTick>
 8001238:	1b40      	subs	r0, r0, r5
 800123a:	2802      	cmp	r0, #2
 800123c:	d9f6      	bls.n	800122c <HAL_RCC_OscConfig+0x2d4>
 800123e:	e6cc      	b.n	8000fda <HAL_RCC_OscConfig+0x82>
 8001240:	f7ff fcde 	bl	8000c00 <HAL_GetTick>
 8001244:	1b80      	subs	r0, r0, r6
 8001246:	2802      	cmp	r0, #2
 8001248:	d9d6      	bls.n	80011f8 <HAL_RCC_OscConfig+0x2a0>
 800124a:	e6c6      	b.n	8000fda <HAL_RCC_OscConfig+0x82>
 800124c:	f7ff fcd8 	bl	8000c00 <HAL_GetTick>
 8001250:	4605      	mov	r5, r0
 8001252:	6823      	ldr	r3, [r4, #0]
 8001254:	019b      	lsls	r3, r3, #6
 8001256:	f57f ae95 	bpl.w	8000f84 <HAL_RCC_OscConfig+0x2c>
 800125a:	f7ff fcd1 	bl	8000c00 <HAL_GetTick>
 800125e:	1b40      	subs	r0, r0, r5
 8001260:	2802      	cmp	r0, #2
 8001262:	d9f6      	bls.n	8001252 <HAL_RCC_OscConfig+0x2fa>
 8001264:	e6b9      	b.n	8000fda <HAL_RCC_OscConfig+0x82>
 8001266:	2801      	cmp	r0, #1
 8001268:	f43f aeb8 	beq.w	8000fdc <HAL_RCC_OscConfig+0x84>
 800126c:	6863      	ldr	r3, [r4, #4]
 800126e:	6a2a      	ldr	r2, [r5, #32]
 8001270:	f403 3180 	and.w	r1, r3, #65536	; 0x10000
 8001274:	4291      	cmp	r1, r2
 8001276:	f47f ae9b 	bne.w	8000fb0 <HAL_RCC_OscConfig+0x58>
 800127a:	6a6a      	ldr	r2, [r5, #36]	; 0x24
 800127c:	f403 1370 	and.w	r3, r3, #3932160	; 0x3c0000
 8001280:	4293      	cmp	r3, r2
 8001282:	f43f ae7f 	beq.w	8000f84 <HAL_RCC_OscConfig+0x2c>
 8001286:	e693      	b.n	8000fb0 <HAL_RCC_OscConfig+0x58>
 8001288:	40021000 	.word	0x40021000
 800128c:	42420000 	.word	0x42420000

08001290 <HAL_RCC_GetSysClockFreq>:
 8001290:	b530      	push	{r4, r5, lr}
 8001292:	4b18      	ldr	r3, [pc, #96]	; (80012f4 <HAL_RCC_GetSysClockFreq+0x64>)
 8001294:	b087      	sub	sp, #28
 8001296:	ac02      	add	r4, sp, #8
 8001298:	f103 0510 	add.w	r5, r3, #16
 800129c:	4622      	mov	r2, r4
 800129e:	6818      	ldr	r0, [r3, #0]
 80012a0:	6859      	ldr	r1, [r3, #4]
 80012a2:	3308      	adds	r3, #8
 80012a4:	c203      	stmia	r2!, {r0, r1}
 80012a6:	42ab      	cmp	r3, r5
 80012a8:	4614      	mov	r4, r2
 80012aa:	d1f7      	bne.n	800129c <HAL_RCC_GetSysClockFreq+0xc>
 80012ac:	f240 2301 	movw	r3, #513	; 0x201
 80012b0:	4911      	ldr	r1, [pc, #68]	; (80012f8 <HAL_RCC_GetSysClockFreq+0x68>)
 80012b2:	f8ad 3004 	strh.w	r3, [sp, #4]
 80012b6:	684b      	ldr	r3, [r1, #4]
 80012b8:	f003 020c 	and.w	r2, r3, #12
 80012bc:	2a08      	cmp	r2, #8
 80012be:	d117      	bne.n	80012f0 <HAL_RCC_GetSysClockFreq+0x60>
 80012c0:	f3c3 4283 	ubfx	r2, r3, #18, #4
 80012c4:	3218      	adds	r2, #24
 80012c6:	446a      	add	r2, sp
 80012c8:	03db      	lsls	r3, r3, #15
 80012ca:	f812 0c10 	ldrb.w	r0, [r2, #-16]
 80012ce:	d50c      	bpl.n	80012ea <HAL_RCC_GetSysClockFreq+0x5a>
 80012d0:	684b      	ldr	r3, [r1, #4]
 80012d2:	4a0a      	ldr	r2, [pc, #40]	; (80012fc <HAL_RCC_GetSysClockFreq+0x6c>)
 80012d4:	f3c3 4340 	ubfx	r3, r3, #17, #1
 80012d8:	4350      	muls	r0, r2
 80012da:	3318      	adds	r3, #24
 80012dc:	446b      	add	r3, sp
 80012de:	f813 3c14 	ldrb.w	r3, [r3, #-20]
 80012e2:	fbb0 f0f3 	udiv	r0, r0, r3
 80012e6:	b007      	add	sp, #28
 80012e8:	bd30      	pop	{r4, r5, pc}
 80012ea:	4b05      	ldr	r3, [pc, #20]	; (8001300 <HAL_RCC_GetSysClockFreq+0x70>)
 80012ec:	4358      	muls	r0, r3
 80012ee:	e7fa      	b.n	80012e6 <HAL_RCC_GetSysClockFreq+0x56>
 80012f0:	4802      	ldr	r0, [pc, #8]	; (80012fc <HAL_RCC_GetSysClockFreq+0x6c>)
 80012f2:	e7f8      	b.n	80012e6 <HAL_RCC_GetSysClockFreq+0x56>
 80012f4:	08002492 	.word	0x08002492
 80012f8:	40021000 	.word	0x40021000
 80012fc:	007a1200 	.word	0x007a1200
 8001300:	003d0900 	.word	0x003d0900

08001304 <HAL_RCC_ClockConfig>:
 8001304:	e92d 41f0 	stmdb	sp!, {r4, r5, r6, r7, r8, lr}
 8001308:	460d      	mov	r5, r1
 800130a:	4604      	mov	r4, r0
 800130c:	b910      	cbnz	r0, 8001314 <HAL_RCC_ClockConfig+0x10>
 800130e:	2001      	movs	r0, #1
 8001310:	e8bd 81f0 	ldmia.w	sp!, {r4, r5, r6, r7, r8, pc}
 8001314:	4a44      	ldr	r2, [pc, #272]	; (8001428 <HAL_RCC_ClockConfig+0x124>)
 8001316:	6813      	ldr	r3, [r2, #0]
 8001318:	f003 0307 	and.w	r3, r3, #7
 800131c:	428b      	cmp	r3, r1
 800131e:	d328      	bcc.n	8001372 <HAL_RCC_ClockConfig+0x6e>
 8001320:	6821      	ldr	r1, [r4, #0]
 8001322:	078e      	lsls	r6, r1, #30
 8001324:	d430      	bmi.n	8001388 <HAL_RCC_ClockConfig+0x84>
 8001326:	07ca      	lsls	r2, r1, #31
 8001328:	d443      	bmi.n	80013b2 <HAL_RCC_ClockConfig+0xae>
 800132a:	4a3f      	ldr	r2, [pc, #252]	; (8001428 <HAL_RCC_ClockConfig+0x124>)
 800132c:	6813      	ldr	r3, [r2, #0]
 800132e:	f003 0307 	and.w	r3, r3, #7
 8001332:	42ab      	cmp	r3, r5
 8001334:	d865      	bhi.n	8001402 <HAL_RCC_ClockConfig+0xfe>
 8001336:	6822      	ldr	r2, [r4, #0]
 8001338:	4d3c      	ldr	r5, [pc, #240]	; (800142c <HAL_RCC_ClockConfig+0x128>)
 800133a:	f012 0f04 	tst.w	r2, #4
 800133e:	d16c      	bne.n	800141a <HAL_RCC_ClockConfig+0x116>
 8001340:	0713      	lsls	r3, r2, #28
 8001342:	d506      	bpl.n	8001352 <HAL_RCC_ClockConfig+0x4e>
 8001344:	686b      	ldr	r3, [r5, #4]
 8001346:	6922      	ldr	r2, [r4, #16]
 8001348:	f423 5360 	bic.w	r3, r3, #14336	; 0x3800
 800134c:	ea43 03c2 	orr.w	r3, r3, r2, lsl #3
 8001350:	606b      	str	r3, [r5, #4]
 8001352:	f7ff ff9d 	bl	8001290 <HAL_RCC_GetSysClockFreq>
 8001356:	686b      	ldr	r3, [r5, #4]
 8001358:	4a35      	ldr	r2, [pc, #212]	; (8001430 <HAL_RCC_ClockConfig+0x12c>)
 800135a:	f3c3 1303 	ubfx	r3, r3, #4, #4
 800135e:	5cd3      	ldrb	r3, [r2, r3]
 8001360:	40d8      	lsrs	r0, r3
 8001362:	4b34      	ldr	r3, [pc, #208]	; (8001434 <HAL_RCC_ClockConfig+0x130>)
 8001364:	6018      	str	r0, [r3, #0]
 8001366:	4b34      	ldr	r3, [pc, #208]	; (8001438 <HAL_RCC_ClockConfig+0x134>)
 8001368:	6818      	ldr	r0, [r3, #0]
 800136a:	f7ff fc07 	bl	8000b7c <HAL_InitTick>
 800136e:	2000      	movs	r0, #0
 8001370:	e7ce      	b.n	8001310 <HAL_RCC_ClockConfig+0xc>
 8001372:	6813      	ldr	r3, [r2, #0]
 8001374:	f023 0307 	bic.w	r3, r3, #7
 8001378:	430b      	orrs	r3, r1
 800137a:	6013      	str	r3, [r2, #0]
 800137c:	6813      	ldr	r3, [r2, #0]
 800137e:	f003 0307 	and.w	r3, r3, #7
 8001382:	428b      	cmp	r3, r1
 8001384:	d1c3      	bne.n	800130e <HAL_RCC_ClockConfig+0xa>
 8001386:	e7cb      	b.n	8001320 <HAL_RCC_ClockConfig+0x1c>
 8001388:	4b28      	ldr	r3, [pc, #160]	; (800142c <HAL_RCC_ClockConfig+0x128>)
 800138a:	f011 0f04 	tst.w	r1, #4
 800138e:	bf1e      	ittt	ne
 8001390:	685a      	ldrne	r2, [r3, #4]
 8001392:	f442 62e0 	orrne.w	r2, r2, #1792	; 0x700
 8001396:	605a      	strne	r2, [r3, #4]
 8001398:	0708      	lsls	r0, r1, #28
 800139a:	bf42      	ittt	mi
 800139c:	685a      	ldrmi	r2, [r3, #4]
 800139e:	f442 5260 	orrmi.w	r2, r2, #14336	; 0x3800
 80013a2:	605a      	strmi	r2, [r3, #4]
 80013a4:	685a      	ldr	r2, [r3, #4]
 80013a6:	68a0      	ldr	r0, [r4, #8]
 80013a8:	f022 02f0 	bic.w	r2, r2, #240	; 0xf0
 80013ac:	4302      	orrs	r2, r0
 80013ae:	605a      	str	r2, [r3, #4]
 80013b0:	e7b9      	b.n	8001326 <HAL_RCC_ClockConfig+0x22>
 80013b2:	6862      	ldr	r2, [r4, #4]
 80013b4:	4e1d      	ldr	r6, [pc, #116]	; (800142c <HAL_RCC_ClockConfig+0x128>)
 80013b6:	2a01      	cmp	r2, #1
 80013b8:	6833      	ldr	r3, [r6, #0]
 80013ba:	d11a      	bne.n	80013f2 <HAL_RCC_ClockConfig+0xee>
 80013bc:	f413 3f00 	tst.w	r3, #131072	; 0x20000
 80013c0:	d0a5      	beq.n	800130e <HAL_RCC_ClockConfig+0xa>
 80013c2:	6873      	ldr	r3, [r6, #4]
 80013c4:	f241 3888 	movw	r8, #5000	; 0x1388
 80013c8:	f023 0303 	bic.w	r3, r3, #3
 80013cc:	4313      	orrs	r3, r2
 80013ce:	6073      	str	r3, [r6, #4]
 80013d0:	f7ff fc16 	bl	8000c00 <HAL_GetTick>
 80013d4:	4607      	mov	r7, r0
 80013d6:	6873      	ldr	r3, [r6, #4]
 80013d8:	6862      	ldr	r2, [r4, #4]
 80013da:	f003 030c 	and.w	r3, r3, #12
 80013de:	ebb3 0f82 	cmp.w	r3, r2, lsl #2
 80013e2:	d0a2      	beq.n	800132a <HAL_RCC_ClockConfig+0x26>
 80013e4:	f7ff fc0c 	bl	8000c00 <HAL_GetTick>
 80013e8:	1bc0      	subs	r0, r0, r7
 80013ea:	4540      	cmp	r0, r8
 80013ec:	d9f3      	bls.n	80013d6 <HAL_RCC_ClockConfig+0xd2>
 80013ee:	2003      	movs	r0, #3
 80013f0:	e78e      	b.n	8001310 <HAL_RCC_ClockConfig+0xc>
 80013f2:	2a02      	cmp	r2, #2
 80013f4:	d102      	bne.n	80013fc <HAL_RCC_ClockConfig+0xf8>
 80013f6:	f013 7f00 	tst.w	r3, #33554432	; 0x2000000
 80013fa:	e7e1      	b.n	80013c0 <HAL_RCC_ClockConfig+0xbc>
 80013fc:	f013 0f02 	tst.w	r3, #2
 8001400:	e7de      	b.n	80013c0 <HAL_RCC_ClockConfig+0xbc>
 8001402:	6813      	ldr	r3, [r2, #0]
 8001404:	f023 0307 	bic.w	r3, r3, #7
 8001408:	432b      	orrs	r3, r5
 800140a:	6013      	str	r3, [r2, #0]
 800140c:	6813      	ldr	r3, [r2, #0]
 800140e:	f003 0307 	and.w	r3, r3, #7
 8001412:	42ab      	cmp	r3, r5
 8001414:	f47f af7b 	bne.w	800130e <HAL_RCC_ClockConfig+0xa>
 8001418:	e78d      	b.n	8001336 <HAL_RCC_ClockConfig+0x32>
 800141a:	686b      	ldr	r3, [r5, #4]
 800141c:	68e1      	ldr	r1, [r4, #12]
 800141e:	f423 63e0 	bic.w	r3, r3, #1792	; 0x700
 8001422:	430b      	orrs	r3, r1
 8001424:	606b      	str	r3, [r5, #4]
 8001426:	e78b      	b.n	8001340 <HAL_RCC_ClockConfig+0x3c>
 8001428:	40022000 	.word	0x40022000
 800142c:	40021000 	.word	0x40021000
 8001430:	0800247a 	.word	0x0800247a
 8001434:	20000008 	.word	0x20000008
 8001438:	20000010 	.word	0x20000010

0800143c <HAL_RCC_GetPCLK2Freq>:
 800143c:	4b04      	ldr	r3, [pc, #16]	; (8001450 <HAL_RCC_GetPCLK2Freq+0x14>)
 800143e:	4a05      	ldr	r2, [pc, #20]	; (8001454 <HAL_RCC_GetPCLK2Freq+0x18>)
 8001440:	685b      	ldr	r3, [r3, #4]
 8001442:	f3c3 23c2 	ubfx	r3, r3, #11, #3
 8001446:	5cd3      	ldrb	r3, [r2, r3]
 8001448:	4a03      	ldr	r2, [pc, #12]	; (8001458 <HAL_RCC_GetPCLK2Freq+0x1c>)
 800144a:	6810      	ldr	r0, [r2, #0]
 800144c:	40d8      	lsrs	r0, r3
 800144e:	4770      	bx	lr
 8001450:	40021000 	.word	0x40021000
 8001454:	0800248a 	.word	0x0800248a
 8001458:	20000008 	.word	0x20000008

0800145c <HAL_RCCEx_PeriphCLKConfig>:
 800145c:	6803      	ldr	r3, [r0, #0]
 800145e:	e92d 41f3 	stmdb	sp!, {r0, r1, r4, r5, r6, r7, r8, lr}
 8001462:	07d9      	lsls	r1, r3, #31
 8001464:	4605      	mov	r5, r0
 8001466:	d520      	bpl.n	80014aa <HAL_RCCEx_PeriphCLKConfig+0x4e>
 8001468:	4c36      	ldr	r4, [pc, #216]	; (8001544 <HAL_RCCEx_PeriphCLKConfig+0xe8>)
 800146a:	69e3      	ldr	r3, [r4, #28]
 800146c:	00da      	lsls	r2, r3, #3
 800146e:	d432      	bmi.n	80014d6 <HAL_RCCEx_PeriphCLKConfig+0x7a>
 8001470:	2601      	movs	r6, #1
 8001472:	69e3      	ldr	r3, [r4, #28]
 8001474:	f043 5380 	orr.w	r3, r3, #268435456	; 0x10000000
 8001478:	61e3      	str	r3, [r4, #28]
 800147a:	69e3      	ldr	r3, [r4, #28]
 800147c:	f003 5380 	and.w	r3, r3, #268435456	; 0x10000000
 8001480:	9301      	str	r3, [sp, #4]
 8001482:	9b01      	ldr	r3, [sp, #4]
 8001484:	4f30      	ldr	r7, [pc, #192]	; (8001548 <HAL_RCCEx_PeriphCLKConfig+0xec>)
 8001486:	683b      	ldr	r3, [r7, #0]
 8001488:	05db      	lsls	r3, r3, #23
 800148a:	d526      	bpl.n	80014da <HAL_RCCEx_PeriphCLKConfig+0x7e>
 800148c:	6a23      	ldr	r3, [r4, #32]
 800148e:	f413 7340 	ands.w	r3, r3, #768	; 0x300
 8001492:	d136      	bne.n	8001502 <HAL_RCCEx_PeriphCLKConfig+0xa6>
 8001494:	6a23      	ldr	r3, [r4, #32]
 8001496:	686a      	ldr	r2, [r5, #4]
 8001498:	f423 7340 	bic.w	r3, r3, #768	; 0x300
 800149c:	4313      	orrs	r3, r2
 800149e:	6223      	str	r3, [r4, #32]
 80014a0:	b11e      	cbz	r6, 80014aa <HAL_RCCEx_PeriphCLKConfig+0x4e>
 80014a2:	69e3      	ldr	r3, [r4, #28]
 80014a4:	f023 5380 	bic.w	r3, r3, #268435456	; 0x10000000
 80014a8:	61e3      	str	r3, [r4, #28]
 80014aa:	6828      	ldr	r0, [r5, #0]
 80014ac:	0783      	lsls	r3, r0, #30
 80014ae:	d506      	bpl.n	80014be <HAL_RCCEx_PeriphCLKConfig+0x62>
 80014b0:	4924      	ldr	r1, [pc, #144]	; (8001544 <HAL_RCCEx_PeriphCLKConfig+0xe8>)
 80014b2:	68ab      	ldr	r3, [r5, #8]
 80014b4:	684a      	ldr	r2, [r1, #4]
 80014b6:	f422 4240 	bic.w	r2, r2, #49152	; 0xc000
 80014ba:	431a      	orrs	r2, r3
 80014bc:	604a      	str	r2, [r1, #4]
 80014be:	f010 0010 	ands.w	r0, r0, #16
 80014c2:	d01b      	beq.n	80014fc <HAL_RCCEx_PeriphCLKConfig+0xa0>
 80014c4:	4a1f      	ldr	r2, [pc, #124]	; (8001544 <HAL_RCCEx_PeriphCLKConfig+0xe8>)
 80014c6:	68e9      	ldr	r1, [r5, #12]
 80014c8:	6853      	ldr	r3, [r2, #4]
 80014ca:	2000      	movs	r0, #0
 80014cc:	f423 0380 	bic.w	r3, r3, #4194304	; 0x400000
 80014d0:	430b      	orrs	r3, r1
 80014d2:	6053      	str	r3, [r2, #4]
 80014d4:	e012      	b.n	80014fc <HAL_RCCEx_PeriphCLKConfig+0xa0>
 80014d6:	2600      	movs	r6, #0
 80014d8:	e7d4      	b.n	8001484 <HAL_RCCEx_PeriphCLKConfig+0x28>
 80014da:	683b      	ldr	r3, [r7, #0]
 80014dc:	f443 7380 	orr.w	r3, r3, #256	; 0x100
 80014e0:	603b      	str	r3, [r7, #0]
 80014e2:	f7ff fb8d 	bl	8000c00 <HAL_GetTick>
 80014e6:	4680      	mov	r8, r0
 80014e8:	683b      	ldr	r3, [r7, #0]
 80014ea:	05d8      	lsls	r0, r3, #23
 80014ec:	d4ce      	bmi.n	800148c <HAL_RCCEx_PeriphCLKConfig+0x30>
 80014ee:	f7ff fb87 	bl	8000c00 <HAL_GetTick>
 80014f2:	eba0 0008 	sub.w	r0, r0, r8
 80014f6:	2864      	cmp	r0, #100	; 0x64
 80014f8:	d9f6      	bls.n	80014e8 <HAL_RCCEx_PeriphCLKConfig+0x8c>
 80014fa:	2003      	movs	r0, #3
 80014fc:	b002      	add	sp, #8
 80014fe:	e8bd 81f0 	ldmia.w	sp!, {r4, r5, r6, r7, r8, pc}
 8001502:	686a      	ldr	r2, [r5, #4]
 8001504:	f402 7240 	and.w	r2, r2, #768	; 0x300
 8001508:	429a      	cmp	r2, r3
 800150a:	d0c3      	beq.n	8001494 <HAL_RCCEx_PeriphCLKConfig+0x38>
 800150c:	2001      	movs	r0, #1
 800150e:	4a0f      	ldr	r2, [pc, #60]	; (800154c <HAL_RCCEx_PeriphCLKConfig+0xf0>)
 8001510:	6a23      	ldr	r3, [r4, #32]
 8001512:	f8c2 0440 	str.w	r0, [r2, #1088]	; 0x440
 8001516:	2000      	movs	r0, #0
 8001518:	f423 7140 	bic.w	r1, r3, #768	; 0x300
 800151c:	f8c2 0440 	str.w	r0, [r2, #1088]	; 0x440
 8001520:	6221      	str	r1, [r4, #32]
 8001522:	07d9      	lsls	r1, r3, #31
 8001524:	d5b6      	bpl.n	8001494 <HAL_RCCEx_PeriphCLKConfig+0x38>
 8001526:	f7ff fb6b 	bl	8000c00 <HAL_GetTick>
 800152a:	f241 3888 	movw	r8, #5000	; 0x1388
 800152e:	4607      	mov	r7, r0
 8001530:	6a23      	ldr	r3, [r4, #32]
 8001532:	079a      	lsls	r2, r3, #30
 8001534:	d4ae      	bmi.n	8001494 <HAL_RCCEx_PeriphCLKConfig+0x38>
 8001536:	f7ff fb63 	bl	8000c00 <HAL_GetTick>
 800153a:	1bc0      	subs	r0, r0, r7
 800153c:	4540      	cmp	r0, r8
 800153e:	d9f7      	bls.n	8001530 <HAL_RCCEx_PeriphCLKConfig+0xd4>
 8001540:	e7db      	b.n	80014fa <HAL_RCCEx_PeriphCLKConfig+0x9e>
 8001542:	bf00      	nop
 8001544:	40021000 	.word	0x40021000
 8001548:	40007000 	.word	0x40007000
 800154c:	42420000 	.word	0x42420000

08001550 <HAL_RCCEx_GetPeriphCLKFreq>:
 8001550:	4602      	mov	r2, r0
 8001552:	b570      	push	{r4, r5, r6, lr}
 8001554:	4b33      	ldr	r3, [pc, #204]	; (8001624 <HAL_RCCEx_GetPeriphCLKFreq+0xd4>)
 8001556:	b086      	sub	sp, #24
 8001558:	ad02      	add	r5, sp, #8
 800155a:	f103 0610 	add.w	r6, r3, #16
 800155e:	462c      	mov	r4, r5
 8001560:	6818      	ldr	r0, [r3, #0]
 8001562:	6859      	ldr	r1, [r3, #4]
 8001564:	3308      	adds	r3, #8
 8001566:	c403      	stmia	r4!, {r0, r1}
 8001568:	42b3      	cmp	r3, r6
 800156a:	4625      	mov	r5, r4
 800156c:	d1f7      	bne.n	800155e <HAL_RCCEx_GetPeriphCLKFreq+0xe>
 800156e:	f240 2301 	movw	r3, #513	; 0x201
 8001572:	2a02      	cmp	r2, #2
 8001574:	f8ad 3004 	strh.w	r3, [sp, #4]
 8001578:	d047      	beq.n	800160a <HAL_RCCEx_GetPeriphCLKFreq+0xba>
 800157a:	2a10      	cmp	r2, #16
 800157c:	d003      	beq.n	8001586 <HAL_RCCEx_GetPeriphCLKFreq+0x36>
 800157e:	2a01      	cmp	r2, #1
 8001580:	d024      	beq.n	80015cc <HAL_RCCEx_GetPeriphCLKFreq+0x7c>
 8001582:	2000      	movs	r0, #0
 8001584:	e036      	b.n	80015f4 <HAL_RCCEx_GetPeriphCLKFreq+0xa4>
 8001586:	4a28      	ldr	r2, [pc, #160]	; (8001628 <HAL_RCCEx_GetPeriphCLKFreq+0xd8>)
 8001588:	6851      	ldr	r1, [r2, #4]
 800158a:	6810      	ldr	r0, [r2, #0]
 800158c:	f010 7080 	ands.w	r0, r0, #16777216	; 0x1000000
 8001590:	d030      	beq.n	80015f4 <HAL_RCCEx_GetPeriphCLKFreq+0xa4>
 8001592:	f3c1 4383 	ubfx	r3, r1, #18, #4
 8001596:	3318      	adds	r3, #24
 8001598:	446b      	add	r3, sp
 800159a:	03c9      	lsls	r1, r1, #15
 800159c:	f813 0c10 	ldrb.w	r0, [r3, #-16]
 80015a0:	bf49      	itett	mi
 80015a2:	6853      	ldrmi	r3, [r2, #4]
 80015a4:	4b21      	ldrpl	r3, [pc, #132]	; (800162c <HAL_RCCEx_GetPeriphCLKFreq+0xdc>)
 80015a6:	f3c3 4340 	ubfxmi	r3, r3, #17, #1
 80015aa:	3318      	addmi	r3, #24
 80015ac:	bf41      	itttt	mi
 80015ae:	446b      	addmi	r3, sp
 80015b0:	f813 1c14 	ldrbmi.w	r1, [r3, #-20]
 80015b4:	4b1e      	ldrmi	r3, [pc, #120]	; (8001630 <HAL_RCCEx_GetPeriphCLKFreq+0xe0>)
 80015b6:	fbb3 f3f1 	udivmi	r3, r3, r1
 80015ba:	4358      	muls	r0, r3
 80015bc:	6853      	ldr	r3, [r2, #4]
 80015be:	025b      	lsls	r3, r3, #9
 80015c0:	d418      	bmi.n	80015f4 <HAL_RCCEx_GetPeriphCLKFreq+0xa4>
 80015c2:	2303      	movs	r3, #3
 80015c4:	0040      	lsls	r0, r0, #1
 80015c6:	fbb0 f0f3 	udiv	r0, r0, r3
 80015ca:	e013      	b.n	80015f4 <HAL_RCCEx_GetPeriphCLKFreq+0xa4>
 80015cc:	f240 3102 	movw	r1, #770	; 0x302
 80015d0:	4a15      	ldr	r2, [pc, #84]	; (8001628 <HAL_RCCEx_GetPeriphCLKFreq+0xd8>)
 80015d2:	6a13      	ldr	r3, [r2, #32]
 80015d4:	4019      	ands	r1, r3
 80015d6:	f5b1 7f81 	cmp.w	r1, #258	; 0x102
 80015da:	d01f      	beq.n	800161c <HAL_RCCEx_GetPeriphCLKFreq+0xcc>
 80015dc:	f403 7340 	and.w	r3, r3, #768	; 0x300
 80015e0:	f5b3 7f00 	cmp.w	r3, #512	; 0x200
 80015e4:	d108      	bne.n	80015f8 <HAL_RCCEx_GetPeriphCLKFreq+0xa8>
 80015e6:	f649 4340 	movw	r3, #40000	; 0x9c40
 80015ea:	6a50      	ldr	r0, [r2, #36]	; 0x24
 80015ec:	f010 0002 	ands.w	r0, r0, #2
 80015f0:	bf18      	it	ne
 80015f2:	4618      	movne	r0, r3
 80015f4:	b006      	add	sp, #24
 80015f6:	bd70      	pop	{r4, r5, r6, pc}
 80015f8:	f5b3 7f40 	cmp.w	r3, #768	; 0x300
 80015fc:	d1c1      	bne.n	8001582 <HAL_RCCEx_GetPeriphCLKFreq+0x32>
 80015fe:	6810      	ldr	r0, [r2, #0]
 8001600:	f24f 4324 	movw	r3, #62500	; 0xf424
 8001604:	f410 3000 	ands.w	r0, r0, #131072	; 0x20000
 8001608:	e7f2      	b.n	80015f0 <HAL_RCCEx_GetPeriphCLKFreq+0xa0>
 800160a:	f7ff ff17 	bl	800143c <HAL_RCC_GetPCLK2Freq>
 800160e:	4b06      	ldr	r3, [pc, #24]	; (8001628 <HAL_RCCEx_GetPeriphCLKFreq+0xd8>)
 8001610:	685b      	ldr	r3, [r3, #4]
 8001612:	f3c3 3381 	ubfx	r3, r3, #14, #2
 8001616:	3301      	adds	r3, #1
 8001618:	005b      	lsls	r3, r3, #1
 800161a:	e7d4      	b.n	80015c6 <HAL_RCCEx_GetPeriphCLKFreq+0x76>
 800161c:	f44f 4000 	mov.w	r0, #32768	; 0x8000
 8001620:	e7e8      	b.n	80015f4 <HAL_RCCEx_GetPeriphCLKFreq+0xa4>
 8001622:	bf00      	nop
 8001624:	08002492 	.word	0x08002492
 8001628:	40021000 	.word	0x40021000
 800162c:	003d0900 	.word	0x003d0900
 8001630:	007a1200 	.word	0x007a1200

08001634 <RTC_ReadTimeCounter>:
 8001634:	6803      	ldr	r3, [r0, #0]
 8001636:	b530      	push	{r4, r5, lr}
 8001638:	699a      	ldr	r2, [r3, #24]
 800163a:	69d8      	ldr	r0, [r3, #28]
 800163c:	6999      	ldr	r1, [r3, #24]
 800163e:	b295      	uxth	r5, r2
 8001640:	b28c      	uxth	r4, r1
 8001642:	42a5      	cmp	r5, r4
 8001644:	bf17      	itett	ne
 8001646:	69d8      	ldrne	r0, [r3, #28]
 8001648:	b280      	uxtheq	r0, r0
 800164a:	b280      	uxthne	r0, r0
 800164c:	ea40 4001 	orrne.w	r0, r0, r1, lsl #16
 8001650:	bf08      	it	eq
 8001652:	ea40 4002 	orreq.w	r0, r0, r2, lsl #16
 8001656:	bd30      	pop	{r4, r5, pc}

08001658 <RTC_ReadAlarmCounter>:
 8001658:	6803      	ldr	r3, [r0, #0]
 800165a:	6a18      	ldr	r0, [r3, #32]
 800165c:	6a5b      	ldr	r3, [r3, #36]	; 0x24
 800165e:	b29b      	uxth	r3, r3
 8001660:	ea43 4000 	orr.w	r0, r3, r0, lsl #16
 8001664:	4770      	bx	lr

08001666 <RTC_ByteToBcd2>:
 8001666:	2300      	movs	r3, #0
 8001668:	2809      	cmp	r0, #9
 800166a:	d803      	bhi.n	8001674 <RTC_ByteToBcd2+0xe>
 800166c:	ea40 1003 	orr.w	r0, r0, r3, lsl #4
 8001670:	b2c0      	uxtb	r0, r0
 8001672:	4770      	bx	lr
 8001674:	380a      	subs	r0, #10
 8001676:	3301      	adds	r3, #1
 8001678:	b2c0      	uxtb	r0, r0
 800167a:	e7f5      	b.n	8001668 <RTC_ByteToBcd2+0x2>

0800167c <RTC_Bcd2ToByte>:
 800167c:	220a      	movs	r2, #10
 800167e:	0903      	lsrs	r3, r0, #4
 8001680:	f000 000f 	and.w	r0, r0, #15
 8001684:	fb02 0003 	mla	r0, r2, r3, r0
 8001688:	b2c0      	uxtb	r0, r0
 800168a:	4770      	bx	lr

0800168c <RTC_WeekDayNum>:
 800168c:	b530      	push	{r4, r5, lr}
 800168e:	4603      	mov	r3, r0
 8001690:	f500 64fa 	add.w	r4, r0, #2000	; 0x7d0
 8001694:	2017      	movs	r0, #23
 8001696:	2509      	movs	r5, #9
 8001698:	4348      	muls	r0, r1
 800169a:	2902      	cmp	r1, #2
 800169c:	fbb0 f5f5 	udiv	r5, r0, r5
 80016a0:	d817      	bhi.n	80016d2 <RTC_WeekDayNum+0x46>
 80016a2:	3204      	adds	r2, #4
 80016a4:	1910      	adds	r0, r2, r4
 80016a6:	f44f 72c8 	mov.w	r2, #400	; 0x190
 80016aa:	f203 73cf 	addw	r3, r3, #1999	; 0x7cf
 80016ae:	fbb3 f2f2 	udiv	r2, r3, r2
 80016b2:	4428      	add	r0, r5
 80016b4:	eb00 0093 	add.w	r0, r0, r3, lsr #2
 80016b8:	4410      	add	r0, r2
 80016ba:	2264      	movs	r2, #100	; 0x64
 80016bc:	fbb3 f3f2 	udiv	r3, r3, r2
 80016c0:	1ac0      	subs	r0, r0, r3
 80016c2:	2307      	movs	r3, #7
 80016c4:	fbb0 f3f3 	udiv	r3, r0, r3
 80016c8:	ebc3 03c3 	rsb	r3, r3, r3, lsl #3
 80016cc:	1ac0      	subs	r0, r0, r3
 80016ce:	b2c0      	uxtb	r0, r0
 80016d0:	bd30      	pop	{r4, r5, pc}
 80016d2:	f44f 73c8 	mov.w	r3, #400	; 0x190
 80016d6:	fbb4 f3f3 	udiv	r3, r4, r3
 80016da:	1c90      	adds	r0, r2, #2
 80016dc:	4420      	add	r0, r4
 80016de:	4428      	add	r0, r5
 80016e0:	eb00 0094 	add.w	r0, r0, r4, lsr #2
 80016e4:	4418      	add	r0, r3
 80016e6:	2364      	movs	r3, #100	; 0x64
 80016e8:	fbb4 f4f3 	udiv	r4, r4, r3
 80016ec:	1b00      	subs	r0, r0, r4
 80016ee:	e7e8      	b.n	80016c2 <RTC_WeekDayNum+0x36>

080016f0 <RTC_EnterInitMode>:
 80016f0:	b538      	push	{r3, r4, r5, lr}
 80016f2:	4604      	mov	r4, r0
 80016f4:	f7ff fa84 	bl	8000c00 <HAL_GetTick>
 80016f8:	4605      	mov	r5, r0
 80016fa:	6823      	ldr	r3, [r4, #0]
 80016fc:	685a      	ldr	r2, [r3, #4]
 80016fe:	0692      	lsls	r2, r2, #26
 8001700:	d505      	bpl.n	800170e <RTC_EnterInitMode+0x1e>
 8001702:	2000      	movs	r0, #0
 8001704:	685a      	ldr	r2, [r3, #4]
 8001706:	f042 0210 	orr.w	r2, r2, #16
 800170a:	605a      	str	r2, [r3, #4]
 800170c:	bd38      	pop	{r3, r4, r5, pc}
 800170e:	f7ff fa77 	bl	8000c00 <HAL_GetTick>
 8001712:	1b40      	subs	r0, r0, r5
 8001714:	f5b0 7f7a 	cmp.w	r0, #1000	; 0x3e8
 8001718:	d9ef      	bls.n	80016fa <RTC_EnterInitMode+0xa>
 800171a:	2003      	movs	r0, #3
 800171c:	e7f6      	b.n	800170c <RTC_EnterInitMode+0x1c>

0800171e <RTC_ExitInitMode>:
 800171e:	6802      	ldr	r2, [r0, #0]
 8001720:	b538      	push	{r3, r4, r5, lr}
 8001722:	6853      	ldr	r3, [r2, #4]
 8001724:	4604      	mov	r4, r0
 8001726:	f023 0310 	bic.w	r3, r3, #16
 800172a:	6053      	str	r3, [r2, #4]
 800172c:	f7ff fa68 	bl	8000c00 <HAL_GetTick>
 8001730:	4605      	mov	r5, r0
 8001732:	6823      	ldr	r3, [r4, #0]
 8001734:	685b      	ldr	r3, [r3, #4]
 8001736:	069b      	lsls	r3, r3, #26
 8001738:	d501      	bpl.n	800173e <RTC_ExitInitMode+0x20>
 800173a:	2000      	movs	r0, #0
 800173c:	bd38      	pop	{r3, r4, r5, pc}
 800173e:	f7ff fa5f 	bl	8000c00 <HAL_GetTick>
 8001742:	1b40      	subs	r0, r0, r5
 8001744:	f5b0 7f7a 	cmp.w	r0, #1000	; 0x3e8
 8001748:	d9f3      	bls.n	8001732 <RTC_ExitInitMode+0x14>
 800174a:	2003      	movs	r0, #3
 800174c:	e7f6      	b.n	800173c <RTC_ExitInitMode+0x1e>

0800174e <RTC_WriteTimeCounter>:
 800174e:	b538      	push	{r3, r4, r5, lr}
 8001750:	4605      	mov	r5, r0
 8001752:	460c      	mov	r4, r1
 8001754:	f7ff ffcc 	bl	80016f0 <RTC_EnterInitMode>
 8001758:	b958      	cbnz	r0, 8001772 <RTC_WriteTimeCounter+0x24>
 800175a:	682b      	ldr	r3, [r5, #0]
 800175c:	0c22      	lsrs	r2, r4, #16
 800175e:	b2a4      	uxth	r4, r4
 8001760:	619a      	str	r2, [r3, #24]
 8001762:	4628      	mov	r0, r5
 8001764:	61dc      	str	r4, [r3, #28]
 8001766:	f7ff ffda 	bl	800171e <RTC_ExitInitMode>
 800176a:	3800      	subs	r0, #0
 800176c:	bf18      	it	ne
 800176e:	2001      	movne	r0, #1
 8001770:	bd38      	pop	{r3, r4, r5, pc}
 8001772:	2001      	movs	r0, #1
 8001774:	e7fc      	b.n	8001770 <RTC_WriteTimeCounter+0x22>

08001776 <RTC_WriteAlarmCounter>:
 8001776:	b538      	push	{r3, r4, r5, lr}
 8001778:	4605      	mov	r5, r0
 800177a:	460c      	mov	r4, r1
 800177c:	f7ff ffb8 	bl	80016f0 <RTC_EnterInitMode>
 8001780:	b958      	cbnz	r0, 800179a <RTC_WriteAlarmCounter+0x24>
 8001782:	682b      	ldr	r3, [r5, #0]
 8001784:	0c22      	lsrs	r2, r4, #16
 8001786:	b2a4      	uxth	r4, r4
 8001788:	621a      	str	r2, [r3, #32]
 800178a:	4628      	mov	r0, r5
 800178c:	625c      	str	r4, [r3, #36]	; 0x24
 800178e:	f7ff ffc6 	bl	800171e <RTC_ExitInitMode>
 8001792:	3800      	subs	r0, #0
 8001794:	bf18      	it	ne
 8001796:	2001      	movne	r0, #1
 8001798:	bd38      	pop	{r3, r4, r5, pc}
 800179a:	2001      	movs	r0, #1
 800179c:	e7fc      	b.n	8001798 <RTC_WriteAlarmCounter+0x22>

0800179e <HAL_RTC_SetTime>:
 800179e:	b5f8      	push	{r3, r4, r5, r6, r7, lr}
 80017a0:	4604      	mov	r4, r0
 80017a2:	b1e0      	cbz	r0, 80017de <HAL_RTC_SetTime+0x40>
 80017a4:	b1d9      	cbz	r1, 80017de <HAL_RTC_SetTime+0x40>
 80017a6:	7c03      	ldrb	r3, [r0, #16]
 80017a8:	2502      	movs	r5, #2
 80017aa:	2b01      	cmp	r3, #1
 80017ac:	d044      	beq.n	8001838 <HAL_RTC_SetTime+0x9a>
 80017ae:	2301      	movs	r3, #1
 80017b0:	7445      	strb	r5, [r0, #17]
 80017b2:	7403      	strb	r3, [r0, #16]
 80017b4:	7808      	ldrb	r0, [r1, #0]
 80017b6:	784d      	ldrb	r5, [r1, #1]
 80017b8:	788f      	ldrb	r7, [r1, #2]
 80017ba:	b992      	cbnz	r2, 80017e2 <HAL_RTC_SetTime+0x44>
 80017bc:	263c      	movs	r6, #60	; 0x3c
 80017be:	4375      	muls	r5, r6
 80017c0:	f44f 6661 	mov.w	r6, #3600	; 0xe10
 80017c4:	fb06 5500 	mla	r5, r6, r0, r5
 80017c8:	19ee      	adds	r6, r5, r7
 80017ca:	4631      	mov	r1, r6
 80017cc:	4620      	mov	r0, r4
 80017ce:	f7ff ffbe 	bl	800174e <RTC_WriteTimeCounter>
 80017d2:	4605      	mov	r5, r0
 80017d4:	b1b0      	cbz	r0, 8001804 <HAL_RTC_SetTime+0x66>
 80017d6:	2304      	movs	r3, #4
 80017d8:	7463      	strb	r3, [r4, #17]
 80017da:	2300      	movs	r3, #0
 80017dc:	7423      	strb	r3, [r4, #16]
 80017de:	2501      	movs	r5, #1
 80017e0:	e02a      	b.n	8001838 <HAL_RTC_SetTime+0x9a>
 80017e2:	f7ff ff4b 	bl	800167c <RTC_Bcd2ToByte>
 80017e6:	4601      	mov	r1, r0
 80017e8:	4628      	mov	r0, r5
 80017ea:	f7ff ff47 	bl	800167c <RTC_Bcd2ToByte>
 80017ee:	263c      	movs	r6, #60	; 0x3c
 80017f0:	4346      	muls	r6, r0
 80017f2:	f44f 6061 	mov.w	r0, #3600	; 0xe10
 80017f6:	fb00 6601 	mla	r6, r0, r1, r6
 80017fa:	4638      	mov	r0, r7
 80017fc:	f7ff ff3e 	bl	800167c <RTC_Bcd2ToByte>
 8001800:	4406      	add	r6, r0
 8001802:	e7e2      	b.n	80017ca <HAL_RTC_SetTime+0x2c>
 8001804:	6822      	ldr	r2, [r4, #0]
 8001806:	4620      	mov	r0, r4
 8001808:	6853      	ldr	r3, [r2, #4]
 800180a:	f023 0305 	bic.w	r3, r3, #5
 800180e:	6053      	str	r3, [r2, #4]
 8001810:	f7ff ff22 	bl	8001658 <RTC_ReadAlarmCounter>
 8001814:	4286      	cmp	r6, r0
 8001816:	d90b      	bls.n	8001830 <HAL_RTC_SetTime+0x92>
 8001818:	f500 31a8 	add.w	r1, r0, #86016	; 0x15000
 800181c:	f501 71c0 	add.w	r1, r1, #384	; 0x180
 8001820:	4620      	mov	r0, r4
 8001822:	f7ff ffa8 	bl	8001776 <RTC_WriteAlarmCounter>
 8001826:	b118      	cbz	r0, 8001830 <HAL_RTC_SetTime+0x92>
 8001828:	2304      	movs	r3, #4
 800182a:	7425      	strb	r5, [r4, #16]
 800182c:	7463      	strb	r3, [r4, #17]
 800182e:	e7d6      	b.n	80017de <HAL_RTC_SetTime+0x40>
 8001830:	2301      	movs	r3, #1
 8001832:	7463      	strb	r3, [r4, #17]
 8001834:	2300      	movs	r3, #0
 8001836:	7423      	strb	r3, [r4, #16]
 8001838:	4628      	mov	r0, r5
 800183a:	bdf8      	pop	{r3, r4, r5, r6, r7, pc}

0800183c <HAL_RTC_GetTime>:
 800183c:	e92d 47f0 	stmdb	sp!, {r4, r5, r6, r7, r8, r9, sl, lr}
 8001840:	460e      	mov	r6, r1
 8001842:	4617      	mov	r7, r2
 8001844:	4605      	mov	r5, r0
 8001846:	b910      	cbnz	r0, 800184e <HAL_RTC_GetTime+0x12>
 8001848:	2001      	movs	r0, #1
 800184a:	e8bd 87f0 	ldmia.w	sp!, {r4, r5, r6, r7, r8, r9, sl, pc}
 800184e:	2900      	cmp	r1, #0
 8001850:	d0fa      	beq.n	8001848 <HAL_RTC_GetTime+0xc>
 8001852:	6803      	ldr	r3, [r0, #0]
 8001854:	685b      	ldr	r3, [r3, #4]
 8001856:	f013 0804 	ands.w	r8, r3, #4
 800185a:	d1f5      	bne.n	8001848 <HAL_RTC_GetTime+0xc>
 800185c:	f7ff feea 	bl	8001634 <RTC_ReadTimeCounter>
 8001860:	f44f 6361 	mov.w	r3, #3600	; 0xe10
 8001864:	fbb0 f2f3 	udiv	r2, r0, r3
 8001868:	4604      	mov	r4, r0
 800186a:	fb03 0312 	mls	r3, r3, r2, r0
 800186e:	203c      	movs	r0, #60	; 0x3c
 8001870:	fbb3 f1f0 	udiv	r1, r3, r0
 8001874:	fb00 3311 	mls	r3, r0, r1, r3
 8001878:	70b3      	strb	r3, [r6, #2]
 800187a:	4b4d      	ldr	r3, [pc, #308]	; (80019b0 <HAL_RTC_GetTime+0x174>)
 800187c:	7071      	strb	r1, [r6, #1]
 800187e:	429c      	cmp	r4, r3
 8001880:	f240 808b 	bls.w	800199a <HAL_RTC_GetTime+0x15e>
 8001884:	2318      	movs	r3, #24
 8001886:	fbb2 f9f3 	udiv	r9, r2, r3
 800188a:	fb03 2219 	mls	r2, r3, r9, r2
 800188e:	4628      	mov	r0, r5
 8001890:	7032      	strb	r2, [r6, #0]
 8001892:	f7ff fee1 	bl	8001658 <RTC_ReadAlarmCounter>
 8001896:	f1b0 3fff 	cmp.w	r0, #4294967295
 800189a:	4682      	mov	sl, r0
 800189c:	d005      	beq.n	80018aa <HAL_RTC_GetTime+0x6e>
 800189e:	4284      	cmp	r4, r0
 80018a0:	bf2c      	ite	cs
 80018a2:	f04f 3aff 	movcs.w	sl, #4294967295
 80018a6:	eba0 0a04 	subcc.w	sl, r0, r4
 80018aa:	4942      	ldr	r1, [pc, #264]	; (80019b4 <HAL_RTC_GetTime+0x178>)
 80018ac:	4628      	mov	r0, r5
 80018ae:	fb01 4419 	mls	r4, r1, r9, r4
 80018b2:	4621      	mov	r1, r4
 80018b4:	f7ff ff4b 	bl	800174e <RTC_WriteTimeCounter>
 80018b8:	2800      	cmp	r0, #0
 80018ba:	d1c5      	bne.n	8001848 <HAL_RTC_GetTime+0xc>
 80018bc:	f1ba 3fff 	cmp.w	sl, #4294967295
 80018c0:	d027      	beq.n	8001912 <HAL_RTC_GetTime+0xd6>
 80018c2:	eb04 010a 	add.w	r1, r4, sl
 80018c6:	4628      	mov	r0, r5
 80018c8:	f7ff ff55 	bl	8001776 <RTC_WriteAlarmCounter>
 80018cc:	2800      	cmp	r0, #0
 80018ce:	d1bb      	bne.n	8001848 <HAL_RTC_GetTime+0xc>
 80018d0:	2264      	movs	r2, #100	; 0x64
 80018d2:	f44f 71c8 	mov.w	r1, #400	; 0x190
 80018d6:	f240 2cd5 	movw	ip, #725	; 0x2d5
 80018da:	7be8      	ldrb	r0, [r5, #15]
 80018dc:	7b6c      	ldrb	r4, [r5, #13]
 80018de:	7bab      	ldrb	r3, [r5, #14]
 80018e0:	45c1      	cmp	r9, r8
 80018e2:	d118      	bne.n	8001916 <HAL_RTC_GetTime+0xda>
 80018e4:	b2e1      	uxtb	r1, r4
 80018e6:	b2da      	uxtb	r2, r3
 80018e8:	73e8      	strb	r0, [r5, #15]
 80018ea:	7369      	strb	r1, [r5, #13]
 80018ec:	73aa      	strb	r2, [r5, #14]
 80018ee:	f7ff fecd 	bl	800168c <RTC_WeekDayNum>
 80018f2:	7328      	strb	r0, [r5, #12]
 80018f4:	b15f      	cbz	r7, 800190e <HAL_RTC_GetTime+0xd2>
 80018f6:	7830      	ldrb	r0, [r6, #0]
 80018f8:	f7ff feb5 	bl	8001666 <RTC_ByteToBcd2>
 80018fc:	7030      	strb	r0, [r6, #0]
 80018fe:	7870      	ldrb	r0, [r6, #1]
 8001900:	f7ff feb1 	bl	8001666 <RTC_ByteToBcd2>
 8001904:	7070      	strb	r0, [r6, #1]
 8001906:	78b0      	ldrb	r0, [r6, #2]
 8001908:	f7ff fead 	bl	8001666 <RTC_ByteToBcd2>
 800190c:	70b0      	strb	r0, [r6, #2]
 800190e:	2000      	movs	r0, #0
 8001910:	e79b      	b.n	800184a <HAL_RTC_GetTime+0xe>
 8001912:	4651      	mov	r1, sl
 8001914:	e7d7      	b.n	80018c6 <HAL_RTC_GetTime+0x8a>
 8001916:	f104 3eff 	add.w	lr, r4, #4294967295
 800191a:	f1be 0f09 	cmp.w	lr, #9
 800191e:	d90e      	bls.n	800193e <HAL_RTC_GetTime+0x102>
 8001920:	2c0c      	cmp	r4, #12
 8001922:	d03c      	beq.n	800199e <HAL_RTC_GetTime+0x162>
 8001924:	f024 0e02 	bic.w	lr, r4, #2
 8001928:	f1be 0f04 	cmp.w	lr, #4
 800192c:	d002      	beq.n	8001934 <HAL_RTC_GetTime+0xf8>
 800192e:	f1be 0f09 	cmp.w	lr, #9
 8001932:	d10b      	bne.n	800194c <HAL_RTC_GetTime+0x110>
 8001934:	2b1d      	cmp	r3, #29
 8001936:	d90d      	bls.n	8001954 <HAL_RTC_GetTime+0x118>
 8001938:	2301      	movs	r3, #1
 800193a:	3401      	adds	r4, #1
 800193c:	e034      	b.n	80019a8 <HAL_RTC_GetTime+0x16c>
 800193e:	fa2c fe0e 	lsr.w	lr, ip, lr
 8001942:	f01e 0f01 	tst.w	lr, #1
 8001946:	d0ed      	beq.n	8001924 <HAL_RTC_GetTime+0xe8>
 8001948:	2b1e      	cmp	r3, #30
 800194a:	e7f4      	b.n	8001936 <HAL_RTC_GetTime+0xfa>
 800194c:	2c02      	cmp	r4, #2
 800194e:	d12b      	bne.n	80019a8 <HAL_RTC_GetTime+0x16c>
 8001950:	2b1b      	cmp	r3, #27
 8001952:	d801      	bhi.n	8001958 <HAL_RTC_GetTime+0x11c>
 8001954:	3301      	adds	r3, #1
 8001956:	e027      	b.n	80019a8 <HAL_RTC_GetTime+0x16c>
 8001958:	2b1c      	cmp	r3, #28
 800195a:	d117      	bne.n	800198c <HAL_RTC_GetTime+0x150>
 800195c:	f010 0f03 	tst.w	r0, #3
 8001960:	b283      	uxth	r3, r0
 8001962:	d115      	bne.n	8001990 <HAL_RTC_GetTime+0x154>
 8001964:	fbb3 fef2 	udiv	lr, r3, r2
 8001968:	fb02 3e1e 	mls	lr, r2, lr, r3
 800196c:	fa1f fe8e 	uxth.w	lr, lr
 8001970:	f1be 0f00 	cmp.w	lr, #0
 8001974:	d10f      	bne.n	8001996 <HAL_RTC_GetTime+0x15a>
 8001976:	fbb3 fef1 	udiv	lr, r3, r1
 800197a:	fb01 331e 	mls	r3, r1, lr, r3
 800197e:	b29b      	uxth	r3, r3
 8001980:	2b00      	cmp	r3, #0
 8001982:	bf16      	itet	ne
 8001984:	2301      	movne	r3, #1
 8001986:	231d      	moveq	r3, #29
 8001988:	2403      	movne	r4, #3
 800198a:	e00d      	b.n	80019a8 <HAL_RTC_GetTime+0x16c>
 800198c:	2b1d      	cmp	r3, #29
 800198e:	d10b      	bne.n	80019a8 <HAL_RTC_GetTime+0x16c>
 8001990:	2301      	movs	r3, #1
 8001992:	2403      	movs	r4, #3
 8001994:	e008      	b.n	80019a8 <HAL_RTC_GetTime+0x16c>
 8001996:	231d      	movs	r3, #29
 8001998:	e006      	b.n	80019a8 <HAL_RTC_GetTime+0x16c>
 800199a:	7032      	strb	r2, [r6, #0]
 800199c:	e7aa      	b.n	80018f4 <HAL_RTC_GetTime+0xb8>
 800199e:	2b1e      	cmp	r3, #30
 80019a0:	d9d8      	bls.n	8001954 <HAL_RTC_GetTime+0x118>
 80019a2:	2301      	movs	r3, #1
 80019a4:	461c      	mov	r4, r3
 80019a6:	3001      	adds	r0, #1
 80019a8:	f108 0801 	add.w	r8, r8, #1
 80019ac:	e798      	b.n	80018e0 <HAL_RTC_GetTime+0xa4>
 80019ae:	bf00      	nop
 80019b0:	0001517f 	.word	0x0001517f
 80019b4:	00015180 	.word	0x00015180

080019b8 <HAL_RTC_SetDate>:
 80019b8:	b570      	push	{r4, r5, r6, lr}
 80019ba:	460d      	mov	r5, r1
 80019bc:	4604      	mov	r4, r0
 80019be:	b350      	cbz	r0, 8001a16 <HAL_RTC_SetDate+0x5e>
 80019c0:	b349      	cbz	r1, 8001a16 <HAL_RTC_SetDate+0x5e>
 80019c2:	7c03      	ldrb	r3, [r0, #16]
 80019c4:	2002      	movs	r0, #2
 80019c6:	2b01      	cmp	r3, #1
 80019c8:	d048      	beq.n	8001a5c <HAL_RTC_SetDate+0xa4>
 80019ca:	2301      	movs	r3, #1
 80019cc:	7460      	strb	r0, [r4, #17]
 80019ce:	7423      	strb	r3, [r4, #16]
 80019d0:	78c8      	ldrb	r0, [r1, #3]
 80019d2:	bb12      	cbnz	r2, 8001a1a <HAL_RTC_SetDate+0x62>
 80019d4:	73e0      	strb	r0, [r4, #15]
 80019d6:	784b      	ldrb	r3, [r1, #1]
 80019d8:	7363      	strb	r3, [r4, #13]
 80019da:	788b      	ldrb	r3, [r1, #2]
 80019dc:	73a3      	strb	r3, [r4, #14]
 80019de:	7ba2      	ldrb	r2, [r4, #14]
 80019e0:	7b61      	ldrb	r1, [r4, #13]
 80019e2:	7be0      	ldrb	r0, [r4, #15]
 80019e4:	f7ff fe52 	bl	800168c <RTC_WeekDayNum>
 80019e8:	7320      	strb	r0, [r4, #12]
 80019ea:	7028      	strb	r0, [r5, #0]
 80019ec:	4620      	mov	r0, r4
 80019ee:	f7ff fe21 	bl	8001634 <RTC_ReadTimeCounter>
 80019f2:	4b1b      	ldr	r3, [pc, #108]	; (8001a60 <HAL_RTC_SetDate+0xa8>)
 80019f4:	4298      	cmp	r0, r3
 80019f6:	d92d      	bls.n	8001a54 <HAL_RTC_SetDate+0x9c>
 80019f8:	4d1a      	ldr	r5, [pc, #104]	; (8001a64 <HAL_RTC_SetDate+0xac>)
 80019fa:	fbb0 f1f5 	udiv	r1, r0, r5
 80019fe:	fb05 0511 	mls	r5, r5, r1, r0
 8001a02:	4620      	mov	r0, r4
 8001a04:	4629      	mov	r1, r5
 8001a06:	f7ff fea2 	bl	800174e <RTC_WriteTimeCounter>
 8001a0a:	4606      	mov	r6, r0
 8001a0c:	b188      	cbz	r0, 8001a32 <HAL_RTC_SetDate+0x7a>
 8001a0e:	2304      	movs	r3, #4
 8001a10:	7463      	strb	r3, [r4, #17]
 8001a12:	2300      	movs	r3, #0
 8001a14:	7423      	strb	r3, [r4, #16]
 8001a16:	2001      	movs	r0, #1
 8001a18:	e020      	b.n	8001a5c <HAL_RTC_SetDate+0xa4>
 8001a1a:	f7ff fe2f 	bl	800167c <RTC_Bcd2ToByte>
 8001a1e:	73e0      	strb	r0, [r4, #15]
 8001a20:	7848      	ldrb	r0, [r1, #1]
 8001a22:	f7ff fe2b 	bl	800167c <RTC_Bcd2ToByte>
 8001a26:	7360      	strb	r0, [r4, #13]
 8001a28:	7888      	ldrb	r0, [r1, #2]
 8001a2a:	f7ff fe27 	bl	800167c <RTC_Bcd2ToByte>
 8001a2e:	73a0      	strb	r0, [r4, #14]
 8001a30:	e7d5      	b.n	80019de <HAL_RTC_SetDate+0x26>
 8001a32:	4620      	mov	r0, r4
 8001a34:	f7ff fe10 	bl	8001658 <RTC_ReadAlarmCounter>
 8001a38:	4285      	cmp	r5, r0
 8001a3a:	d90b      	bls.n	8001a54 <HAL_RTC_SetDate+0x9c>
 8001a3c:	f500 31a8 	add.w	r1, r0, #86016	; 0x15000
 8001a40:	f501 71c0 	add.w	r1, r1, #384	; 0x180
 8001a44:	4620      	mov	r0, r4
 8001a46:	f7ff fe96 	bl	8001776 <RTC_WriteAlarmCounter>
 8001a4a:	b118      	cbz	r0, 8001a54 <HAL_RTC_SetDate+0x9c>
 8001a4c:	2304      	movs	r3, #4
 8001a4e:	7426      	strb	r6, [r4, #16]
 8001a50:	7463      	strb	r3, [r4, #17]
 8001a52:	e7e0      	b.n	8001a16 <HAL_RTC_SetDate+0x5e>
 8001a54:	2301      	movs	r3, #1
 8001a56:	2000      	movs	r0, #0
 8001a58:	7463      	strb	r3, [r4, #17]
 8001a5a:	7420      	strb	r0, [r4, #16]
 8001a5c:	bd70      	pop	{r4, r5, r6, pc}
 8001a5e:	bf00      	nop
 8001a60:	00015f8f 	.word	0x00015f8f
 8001a64:	00015180 	.word	0x00015180

08001a68 <HAL_RTC_SetAlarm_IT>:
 8001a68:	e92d 43f7 	stmdb	sp!, {r0, r1, r2, r4, r5, r6, r7, r8, r9, lr}
 8001a6c:	4691      	mov	r9, r2
 8001a6e:	2200      	movs	r2, #0
 8001a70:	460f      	mov	r7, r1
 8001a72:	4605      	mov	r5, r0
 8001a74:	f8ad 2004 	strh.w	r2, [sp, #4]
 8001a78:	f88d 2006 	strb.w	r2, [sp, #6]
 8001a7c:	b918      	cbnz	r0, 8001a86 <HAL_RTC_SetAlarm_IT+0x1e>
 8001a7e:	2001      	movs	r0, #1
 8001a80:	b003      	add	sp, #12
 8001a82:	e8bd 83f0 	ldmia.w	sp!, {r4, r5, r6, r7, r8, r9, pc}
 8001a86:	2900      	cmp	r1, #0
 8001a88:	d0f9      	beq.n	8001a7e <HAL_RTC_SetAlarm_IT+0x16>
 8001a8a:	7c03      	ldrb	r3, [r0, #16]
 8001a8c:	2b01      	cmp	r3, #1
 8001a8e:	f04f 0302 	mov.w	r3, #2
 8001a92:	d051      	beq.n	8001b38 <HAL_RTC_SetAlarm_IT+0xd0>
 8001a94:	2101      	movs	r1, #1
 8001a96:	7443      	strb	r3, [r0, #17]
 8001a98:	7401      	strb	r1, [r0, #16]
 8001a9a:	a901      	add	r1, sp, #4
 8001a9c:	f7ff fece 	bl	800183c <HAL_RTC_GetTime>
 8001aa0:	2800      	cmp	r0, #0
 8001aa2:	d1ec      	bne.n	8001a7e <HAL_RTC_SetAlarm_IT+0x16>
 8001aa4:	213c      	movs	r1, #60	; 0x3c
 8001aa6:	f44f 6861 	mov.w	r8, #3600	; 0xe10
 8001aaa:	f89d 6005 	ldrb.w	r6, [sp, #5]
 8001aae:	f89d 3004 	ldrb.w	r3, [sp, #4]
 8001ab2:	434e      	muls	r6, r1
 8001ab4:	fb08 6603 	mla	r6, r8, r3, r6
 8001ab8:	f89d 3006 	ldrb.w	r3, [sp, #6]
 8001abc:	7838      	ldrb	r0, [r7, #0]
 8001abe:	787c      	ldrb	r4, [r7, #1]
 8001ac0:	441e      	add	r6, r3
 8001ac2:	78bf      	ldrb	r7, [r7, #2]
 8001ac4:	f1b9 0f00 	cmp.w	r9, #0
 8001ac8:	d112      	bne.n	8001af0 <HAL_RTC_SetAlarm_IT+0x88>
 8001aca:	434c      	muls	r4, r1
 8001acc:	fb08 4400 	mla	r4, r8, r0, r4
 8001ad0:	19e1      	adds	r1, r4, r7
 8001ad2:	42b1      	cmp	r1, r6
 8001ad4:	bf3c      	itt	cc
 8001ad6:	f501 31a8 	addcc.w	r1, r1, #86016	; 0x15000
 8001ada:	f501 71c0 	addcc.w	r1, r1, #384	; 0x180
 8001ade:	4628      	mov	r0, r5
 8001ae0:	f7ff fe49 	bl	8001776 <RTC_WriteAlarmCounter>
 8001ae4:	b190      	cbz	r0, 8001b0c <HAL_RTC_SetAlarm_IT+0xa4>
 8001ae6:	2304      	movs	r3, #4
 8001ae8:	746b      	strb	r3, [r5, #17]
 8001aea:	2300      	movs	r3, #0
 8001aec:	742b      	strb	r3, [r5, #16]
 8001aee:	e7c6      	b.n	8001a7e <HAL_RTC_SetAlarm_IT+0x16>
 8001af0:	f7ff fdc4 	bl	800167c <RTC_Bcd2ToByte>
 8001af4:	4681      	mov	r9, r0
 8001af6:	4620      	mov	r0, r4
 8001af8:	f7ff fdc0 	bl	800167c <RTC_Bcd2ToByte>
 8001afc:	4341      	muls	r1, r0
 8001afe:	4638      	mov	r0, r7
 8001b00:	f7ff fdbc 	bl	800167c <RTC_Bcd2ToByte>
 8001b04:	fb08 1109 	mla	r1, r8, r9, r1
 8001b08:	4401      	add	r1, r0
 8001b0a:	e7e2      	b.n	8001ad2 <HAL_RTC_SetAlarm_IT+0x6a>
 8001b0c:	682b      	ldr	r3, [r5, #0]
 8001b0e:	685a      	ldr	r2, [r3, #4]
 8001b10:	f022 0202 	bic.w	r2, r2, #2
 8001b14:	605a      	str	r2, [r3, #4]
 8001b16:	681a      	ldr	r2, [r3, #0]
 8001b18:	f042 0202 	orr.w	r2, r2, #2
 8001b1c:	601a      	str	r2, [r3, #0]
 8001b1e:	4b07      	ldr	r3, [pc, #28]	; (8001b3c <HAL_RTC_SetAlarm_IT+0xd4>)
 8001b20:	681a      	ldr	r2, [r3, #0]
 8001b22:	f442 3200 	orr.w	r2, r2, #131072	; 0x20000
 8001b26:	601a      	str	r2, [r3, #0]
 8001b28:	689a      	ldr	r2, [r3, #8]
 8001b2a:	f442 3200 	orr.w	r2, r2, #131072	; 0x20000
 8001b2e:	609a      	str	r2, [r3, #8]
 8001b30:	2301      	movs	r3, #1
 8001b32:	7428      	strb	r0, [r5, #16]
 8001b34:	746b      	strb	r3, [r5, #17]
 8001b36:	e7a3      	b.n	8001a80 <HAL_RTC_SetAlarm_IT+0x18>
 8001b38:	4618      	mov	r0, r3
 8001b3a:	e7a1      	b.n	8001a80 <HAL_RTC_SetAlarm_IT+0x18>
 8001b3c:	40010400 	.word	0x40010400

08001b40 <HAL_RTC_AlarmAEventCallback>:
 8001b40:	4770      	bx	lr
	...

08001b44 <HAL_RTC_AlarmIRQHandler>:
 8001b44:	6803      	ldr	r3, [r0, #0]
 8001b46:	b510      	push	{r4, lr}
 8001b48:	681a      	ldr	r2, [r3, #0]
 8001b4a:	4604      	mov	r4, r0
 8001b4c:	0792      	lsls	r2, r2, #30
 8001b4e:	d509      	bpl.n	8001b64 <HAL_RTC_AlarmIRQHandler+0x20>
 8001b50:	685b      	ldr	r3, [r3, #4]
 8001b52:	079b      	lsls	r3, r3, #30
 8001b54:	d506      	bpl.n	8001b64 <HAL_RTC_AlarmIRQHandler+0x20>
 8001b56:	f7ff fff3 	bl	8001b40 <HAL_RTC_AlarmAEventCallback>
 8001b5a:	6822      	ldr	r2, [r4, #0]
 8001b5c:	6853      	ldr	r3, [r2, #4]
 8001b5e:	f023 0302 	bic.w	r3, r3, #2
 8001b62:	6053      	str	r3, [r2, #4]
 8001b64:	f44f 3200 	mov.w	r2, #131072	; 0x20000
 8001b68:	4b02      	ldr	r3, [pc, #8]	; (8001b74 <HAL_RTC_AlarmIRQHandler+0x30>)
 8001b6a:	615a      	str	r2, [r3, #20]
 8001b6c:	2301      	movs	r3, #1
 8001b6e:	7463      	strb	r3, [r4, #17]
 8001b70:	bd10      	pop	{r4, pc}
 8001b72:	bf00      	nop
 8001b74:	40010400 	.word	0x40010400

08001b78 <HAL_RTC_WaitForSynchro>:
 8001b78:	b538      	push	{r3, r4, r5, lr}
 8001b7a:	4604      	mov	r4, r0
 8001b7c:	b1a8      	cbz	r0, 8001baa <HAL_RTC_WaitForSynchro+0x32>
 8001b7e:	6802      	ldr	r2, [r0, #0]
 8001b80:	6853      	ldr	r3, [r2, #4]
 8001b82:	f023 0308 	bic.w	r3, r3, #8
 8001b86:	6053      	str	r3, [r2, #4]
 8001b88:	f7ff f83a 	bl	8000c00 <HAL_GetTick>
 8001b8c:	4605      	mov	r5, r0
 8001b8e:	6823      	ldr	r3, [r4, #0]
 8001b90:	685b      	ldr	r3, [r3, #4]
 8001b92:	071b      	lsls	r3, r3, #28
 8001b94:	d501      	bpl.n	8001b9a <HAL_RTC_WaitForSynchro+0x22>
 8001b96:	2000      	movs	r0, #0
 8001b98:	bd38      	pop	{r3, r4, r5, pc}
 8001b9a:	f7ff f831 	bl	8000c00 <HAL_GetTick>
 8001b9e:	1b40      	subs	r0, r0, r5
 8001ba0:	f5b0 7f7a 	cmp.w	r0, #1000	; 0x3e8
 8001ba4:	d9f3      	bls.n	8001b8e <HAL_RTC_WaitForSynchro+0x16>
 8001ba6:	2003      	movs	r0, #3
 8001ba8:	e7f6      	b.n	8001b98 <HAL_RTC_WaitForSynchro+0x20>
 8001baa:	2001      	movs	r0, #1
 8001bac:	e7f4      	b.n	8001b98 <HAL_RTC_WaitForSynchro+0x20>
	...

08001bb0 <HAL_RTC_Init>:
 8001bb0:	b510      	push	{r4, lr}
 8001bb2:	4604      	mov	r4, r0
 8001bb4:	b170      	cbz	r0, 8001bd4 <HAL_RTC_Init+0x24>
 8001bb6:	7c43      	ldrb	r3, [r0, #17]
 8001bb8:	f003 02ff 	and.w	r2, r3, #255	; 0xff
 8001bbc:	b913      	cbnz	r3, 8001bc4 <HAL_RTC_Init+0x14>
 8001bbe:	7402      	strb	r2, [r0, #16]
 8001bc0:	f7fe ff02 	bl	80009c8 <HAL_RTC_MspInit>
 8001bc4:	2302      	movs	r3, #2
 8001bc6:	4620      	mov	r0, r4
 8001bc8:	7463      	strb	r3, [r4, #17]
 8001bca:	f7ff ffd5 	bl	8001b78 <HAL_RTC_WaitForSynchro>
 8001bce:	b118      	cbz	r0, 8001bd8 <HAL_RTC_Init+0x28>
 8001bd0:	2304      	movs	r3, #4
 8001bd2:	7463      	strb	r3, [r4, #17]
 8001bd4:	2001      	movs	r0, #1
 8001bd6:	e036      	b.n	8001c46 <HAL_RTC_Init+0x96>
 8001bd8:	4620      	mov	r0, r4
 8001bda:	f7ff fd89 	bl	80016f0 <RTC_EnterInitMode>
 8001bde:	2800      	cmp	r0, #0
 8001be0:	d1f6      	bne.n	8001bd0 <HAL_RTC_Init+0x20>
 8001be2:	6822      	ldr	r2, [r4, #0]
 8001be4:	68a0      	ldr	r0, [r4, #8]
 8001be6:	6853      	ldr	r3, [r2, #4]
 8001be8:	f023 0307 	bic.w	r3, r3, #7
 8001bec:	6053      	str	r3, [r2, #4]
 8001bee:	4a16      	ldr	r2, [pc, #88]	; (8001c48 <HAL_RTC_Init+0x98>)
 8001bf0:	b118      	cbz	r0, 8001bfa <HAL_RTC_Init+0x4a>
 8001bf2:	6b11      	ldr	r1, [r2, #48]	; 0x30
 8001bf4:	f021 0101 	bic.w	r1, r1, #1
 8001bf8:	6311      	str	r1, [r2, #48]	; 0x30
 8001bfa:	6ad3      	ldr	r3, [r2, #44]	; 0x2c
 8001bfc:	f423 7360 	bic.w	r3, r3, #896	; 0x380
 8001c00:	4303      	orrs	r3, r0
 8001c02:	62d3      	str	r3, [r2, #44]	; 0x2c
 8001c04:	6860      	ldr	r0, [r4, #4]
 8001c06:	1c43      	adds	r3, r0, #1
 8001c08:	d105      	bne.n	8001c16 <HAL_RTC_Init+0x66>
 8001c0a:	2001      	movs	r0, #1
 8001c0c:	f7ff fca0 	bl	8001550 <HAL_RCCEx_GetPeriphCLKFreq>
 8001c10:	2800      	cmp	r0, #0
 8001c12:	d0dd      	beq.n	8001bd0 <HAL_RTC_Init+0x20>
 8001c14:	3801      	subs	r0, #1
 8001c16:	6822      	ldr	r2, [r4, #0]
 8001c18:	6893      	ldr	r3, [r2, #8]
 8001c1a:	f023 030f 	bic.w	r3, r3, #15
 8001c1e:	ea43 4310 	orr.w	r3, r3, r0, lsr #16
 8001c22:	6093      	str	r3, [r2, #8]
 8001c24:	68d3      	ldr	r3, [r2, #12]
 8001c26:	b280      	uxth	r0, r0
 8001c28:	0c1b      	lsrs	r3, r3, #16
 8001c2a:	041b      	lsls	r3, r3, #16
 8001c2c:	4318      	orrs	r0, r3
 8001c2e:	60d0      	str	r0, [r2, #12]
 8001c30:	4620      	mov	r0, r4
 8001c32:	f7ff fd74 	bl	800171e <RTC_ExitInitMode>
 8001c36:	2301      	movs	r3, #1
 8001c38:	b110      	cbz	r0, 8001c40 <HAL_RTC_Init+0x90>
 8001c3a:	2204      	movs	r2, #4
 8001c3c:	7462      	strb	r2, [r4, #17]
 8001c3e:	e7c9      	b.n	8001bd4 <HAL_RTC_Init+0x24>
 8001c40:	7363      	strb	r3, [r4, #13]
 8001c42:	81e3      	strh	r3, [r4, #14]
 8001c44:	7463      	strb	r3, [r4, #17]
 8001c46:	bd10      	pop	{r4, pc}
 8001c48:	40006c00 	.word	0x40006c00

08001c4c <SPI_WaitFlagStateUntilTimeout.constprop.0>:
 8001c4c:	e92d 41f3 	stmdb	sp!, {r0, r1, r4, r5, r6, r7, r8, lr}
 8001c50:	461c      	mov	r4, r3
 8001c52:	4616      	mov	r6, r2
 8001c54:	460f      	mov	r7, r1
 8001c56:	4605      	mov	r5, r0
 8001c58:	f7fe ffd2 	bl	8000c00 <HAL_GetTick>
 8001c5c:	4434      	add	r4, r6
 8001c5e:	1a24      	subs	r4, r4, r0
 8001c60:	f7fe ffce 	bl	8000c00 <HAL_GetTick>
 8001c64:	4680      	mov	r8, r0
 8001c66:	4b23      	ldr	r3, [pc, #140]	; (8001cf4 <SPI_WaitFlagStateUntilTimeout.constprop.0+0xa8>)
 8001c68:	681b      	ldr	r3, [r3, #0]
 8001c6a:	f3c3 33cb 	ubfx	r3, r3, #15, #12
 8001c6e:	4363      	muls	r3, r4
 8001c70:	682a      	ldr	r2, [r5, #0]
 8001c72:	9301      	str	r3, [sp, #4]
 8001c74:	6893      	ldr	r3, [r2, #8]
 8001c76:	ea37 0303 	bics.w	r3, r7, r3
 8001c7a:	d001      	beq.n	8001c80 <SPI_WaitFlagStateUntilTimeout.constprop.0+0x34>
 8001c7c:	2000      	movs	r0, #0
 8001c7e:	e02e      	b.n	8001cde <SPI_WaitFlagStateUntilTimeout.constprop.0+0x92>
 8001c80:	1c73      	adds	r3, r6, #1
 8001c82:	d0f7      	beq.n	8001c74 <SPI_WaitFlagStateUntilTimeout.constprop.0+0x28>
 8001c84:	f7fe ffbc 	bl	8000c00 <HAL_GetTick>
 8001c88:	eba0 0008 	sub.w	r0, r0, r8
 8001c8c:	42a0      	cmp	r0, r4
 8001c8e:	d329      	bcc.n	8001ce4 <SPI_WaitFlagStateUntilTimeout.constprop.0+0x98>
 8001c90:	682b      	ldr	r3, [r5, #0]
 8001c92:	685a      	ldr	r2, [r3, #4]
 8001c94:	f022 02e0 	bic.w	r2, r2, #224	; 0xe0
 8001c98:	605a      	str	r2, [r3, #4]
 8001c9a:	686a      	ldr	r2, [r5, #4]
 8001c9c:	f5b2 7f82 	cmp.w	r2, #260	; 0x104
 8001ca0:	d10a      	bne.n	8001cb8 <SPI_WaitFlagStateUntilTimeout.constprop.0+0x6c>
 8001ca2:	68aa      	ldr	r2, [r5, #8]
 8001ca4:	f5b2 4f00 	cmp.w	r2, #32768	; 0x8000
 8001ca8:	d002      	beq.n	8001cb0 <SPI_WaitFlagStateUntilTimeout.constprop.0+0x64>
 8001caa:	f5b2 6f80 	cmp.w	r2, #1024	; 0x400
 8001cae:	d103      	bne.n	8001cb8 <SPI_WaitFlagStateUntilTimeout.constprop.0+0x6c>
 8001cb0:	681a      	ldr	r2, [r3, #0]
 8001cb2:	f022 0240 	bic.w	r2, r2, #64	; 0x40
 8001cb6:	601a      	str	r2, [r3, #0]
 8001cb8:	6aaa      	ldr	r2, [r5, #40]	; 0x28
 8001cba:	f5b2 5f00 	cmp.w	r2, #8192	; 0x2000
 8001cbe:	d107      	bne.n	8001cd0 <SPI_WaitFlagStateUntilTimeout.constprop.0+0x84>
 8001cc0:	681a      	ldr	r2, [r3, #0]
 8001cc2:	f422 5200 	bic.w	r2, r2, #8192	; 0x2000
 8001cc6:	601a      	str	r2, [r3, #0]
 8001cc8:	681a      	ldr	r2, [r3, #0]
 8001cca:	f442 5200 	orr.w	r2, r2, #8192	; 0x2000
 8001cce:	601a      	str	r2, [r3, #0]
 8001cd0:	2301      	movs	r3, #1
 8001cd2:	f885 3051 	strb.w	r3, [r5, #81]	; 0x51
 8001cd6:	2300      	movs	r3, #0
 8001cd8:	2003      	movs	r0, #3
 8001cda:	f885 3050 	strb.w	r3, [r5, #80]	; 0x50
 8001cde:	b002      	add	sp, #8
 8001ce0:	e8bd 81f0 	ldmia.w	sp!, {r4, r5, r6, r7, r8, pc}
 8001ce4:	9b01      	ldr	r3, [sp, #4]
 8001ce6:	2b00      	cmp	r3, #0
 8001ce8:	9b01      	ldr	r3, [sp, #4]
 8001cea:	bf08      	it	eq
 8001cec:	2400      	moveq	r4, #0
 8001cee:	3b01      	subs	r3, #1
 8001cf0:	e7be      	b.n	8001c70 <SPI_WaitFlagStateUntilTimeout.constprop.0+0x24>
 8001cf2:	bf00      	nop
 8001cf4:	20000008 	.word	0x20000008

08001cf8 <SPI_EndRxTransaction>:
 8001cf8:	b538      	push	{r3, r4, r5, lr}
 8001cfa:	4613      	mov	r3, r2
 8001cfc:	6842      	ldr	r2, [r0, #4]
 8001cfe:	4604      	mov	r4, r0
 8001d00:	f5b2 7f82 	cmp.w	r2, #260	; 0x104
 8001d04:	d116      	bne.n	8001d34 <SPI_EndRxTransaction+0x3c>
 8001d06:	6882      	ldr	r2, [r0, #8]
 8001d08:	f5b2 4f00 	cmp.w	r2, #32768	; 0x8000
 8001d0c:	d002      	beq.n	8001d14 <SPI_EndRxTransaction+0x1c>
 8001d0e:	f5b2 6f80 	cmp.w	r2, #1024	; 0x400
 8001d12:	d10f      	bne.n	8001d34 <SPI_EndRxTransaction+0x3c>
 8001d14:	6825      	ldr	r5, [r4, #0]
 8001d16:	f5b2 6f80 	cmp.w	r2, #1024	; 0x400
 8001d1a:	6828      	ldr	r0, [r5, #0]
 8001d1c:	f020 0040 	bic.w	r0, r0, #64	; 0x40
 8001d20:	6028      	str	r0, [r5, #0]
 8001d22:	d107      	bne.n	8001d34 <SPI_EndRxTransaction+0x3c>
 8001d24:	460a      	mov	r2, r1
 8001d26:	2101      	movs	r1, #1
 8001d28:	4620      	mov	r0, r4
 8001d2a:	f7ff ff8f 	bl	8001c4c <SPI_WaitFlagStateUntilTimeout.constprop.0>
 8001d2e:	b920      	cbnz	r0, 8001d3a <SPI_EndRxTransaction+0x42>
 8001d30:	2000      	movs	r0, #0
 8001d32:	bd38      	pop	{r3, r4, r5, pc}
 8001d34:	460a      	mov	r2, r1
 8001d36:	2180      	movs	r1, #128	; 0x80
 8001d38:	e7f6      	b.n	8001d28 <SPI_EndRxTransaction+0x30>
 8001d3a:	6d63      	ldr	r3, [r4, #84]	; 0x54
 8001d3c:	2003      	movs	r0, #3
 8001d3e:	f043 0320 	orr.w	r3, r3, #32
 8001d42:	6563      	str	r3, [r4, #84]	; 0x54
 8001d44:	e7f5      	b.n	8001d32 <SPI_EndRxTransaction+0x3a>

08001d46 <SPI_EndRxTxTransaction>:
 8001d46:	b510      	push	{r4, lr}
 8001d48:	4613      	mov	r3, r2
 8001d4a:	460a      	mov	r2, r1
 8001d4c:	2180      	movs	r1, #128	; 0x80
 8001d4e:	4604      	mov	r4, r0
 8001d50:	f7ff ff7c 	bl	8001c4c <SPI_WaitFlagStateUntilTimeout.constprop.0>
 8001d54:	b120      	cbz	r0, 8001d60 <SPI_EndRxTxTransaction+0x1a>
 8001d56:	2003      	movs	r0, #3
 8001d58:	6d63      	ldr	r3, [r4, #84]	; 0x54
 8001d5a:	f043 0320 	orr.w	r3, r3, #32
 8001d5e:	6563      	str	r3, [r4, #84]	; 0x54
 8001d60:	bd10      	pop	{r4, pc}

08001d62 <HAL_SPI_Init>:
 8001d62:	b510      	push	{r4, lr}
 8001d64:	4604      	mov	r4, r0
 8001d66:	2800      	cmp	r0, #0
 8001d68:	d051      	beq.n	8001e0e <HAL_SPI_Init+0xac>
 8001d6a:	6a43      	ldr	r3, [r0, #36]	; 0x24
 8001d6c:	2b00      	cmp	r3, #0
 8001d6e:	d14a      	bne.n	8001e06 <HAL_SPI_Init+0xa4>
 8001d70:	6842      	ldr	r2, [r0, #4]
 8001d72:	f5b2 7f82 	cmp.w	r2, #260	; 0x104
 8001d76:	d000      	beq.n	8001d7a <HAL_SPI_Init+0x18>
 8001d78:	61c3      	str	r3, [r0, #28]
 8001d7a:	2300      	movs	r3, #0
 8001d7c:	62a3      	str	r3, [r4, #40]	; 0x28
 8001d7e:	f894 3051 	ldrb.w	r3, [r4, #81]	; 0x51
 8001d82:	f003 02ff 	and.w	r2, r3, #255	; 0xff
 8001d86:	b923      	cbnz	r3, 8001d92 <HAL_SPI_Init+0x30>
 8001d88:	4620      	mov	r0, r4
 8001d8a:	f884 2050 	strb.w	r2, [r4, #80]	; 0x50
 8001d8e:	f7fe fe61 	bl	8000a54 <HAL_SPI_MspInit>
 8001d92:	2302      	movs	r3, #2
 8001d94:	6822      	ldr	r2, [r4, #0]
 8001d96:	f884 3051 	strb.w	r3, [r4, #81]	; 0x51
 8001d9a:	6813      	ldr	r3, [r2, #0]
 8001d9c:	68a0      	ldr	r0, [r4, #8]
 8001d9e:	f023 0340 	bic.w	r3, r3, #64	; 0x40
 8001da2:	6013      	str	r3, [r2, #0]
 8001da4:	6863      	ldr	r3, [r4, #4]
 8001da6:	f400 4004 	and.w	r0, r0, #33792	; 0x8400
 8001daa:	f403 7382 	and.w	r3, r3, #260	; 0x104
 8001dae:	4303      	orrs	r3, r0
 8001db0:	68e0      	ldr	r0, [r4, #12]
 8001db2:	69a1      	ldr	r1, [r4, #24]
 8001db4:	f400 6000 	and.w	r0, r0, #2048	; 0x800
 8001db8:	4303      	orrs	r3, r0
 8001dba:	6920      	ldr	r0, [r4, #16]
 8001dbc:	f000 0002 	and.w	r0, r0, #2
 8001dc0:	4303      	orrs	r3, r0
 8001dc2:	6960      	ldr	r0, [r4, #20]
 8001dc4:	f000 0001 	and.w	r0, r0, #1
 8001dc8:	4303      	orrs	r3, r0
 8001dca:	f401 7000 	and.w	r0, r1, #512	; 0x200
 8001dce:	4303      	orrs	r3, r0
 8001dd0:	69e0      	ldr	r0, [r4, #28]
 8001dd2:	0c09      	lsrs	r1, r1, #16
 8001dd4:	f000 0038 	and.w	r0, r0, #56	; 0x38
 8001dd8:	4303      	orrs	r3, r0
 8001dda:	6a20      	ldr	r0, [r4, #32]
 8001ddc:	f001 0104 	and.w	r1, r1, #4
 8001de0:	f000 0080 	and.w	r0, r0, #128	; 0x80
 8001de4:	4303      	orrs	r3, r0
 8001de6:	6aa0      	ldr	r0, [r4, #40]	; 0x28
 8001de8:	f400 5000 	and.w	r0, r0, #8192	; 0x2000
 8001dec:	4303      	orrs	r3, r0
 8001dee:	6013      	str	r3, [r2, #0]
 8001df0:	6051      	str	r1, [r2, #4]
 8001df2:	69d3      	ldr	r3, [r2, #28]
 8001df4:	2000      	movs	r0, #0
 8001df6:	f423 6300 	bic.w	r3, r3, #2048	; 0x800
 8001dfa:	61d3      	str	r3, [r2, #28]
 8001dfc:	2301      	movs	r3, #1
 8001dfe:	6560      	str	r0, [r4, #84]	; 0x54
 8001e00:	f884 3051 	strb.w	r3, [r4, #81]	; 0x51
 8001e04:	bd10      	pop	{r4, pc}
 8001e06:	2300      	movs	r3, #0
 8001e08:	e9c0 3304 	strd	r3, r3, [r0, #16]
 8001e0c:	e7b5      	b.n	8001d7a <HAL_SPI_Init+0x18>
 8001e0e:	2001      	movs	r0, #1
 8001e10:	e7f8      	b.n	8001e04 <HAL_SPI_Init+0xa2>

08001e12 <HAL_SPI_Transmit>:
 8001e12:	e92d 41f3 	stmdb	sp!, {r0, r1, r4, r5, r6, r7, r8, lr}
 8001e16:	461e      	mov	r6, r3
 8001e18:	f890 3050 	ldrb.w	r3, [r0, #80]	; 0x50
 8001e1c:	4604      	mov	r4, r0
 8001e1e:	2b01      	cmp	r3, #1
 8001e20:	460d      	mov	r5, r1
 8001e22:	4617      	mov	r7, r2
 8001e24:	f000 80a0 	beq.w	8001f68 <HAL_SPI_Transmit+0x156>
 8001e28:	2301      	movs	r3, #1
 8001e2a:	f880 3050 	strb.w	r3, [r0, #80]	; 0x50
 8001e2e:	f7fe fee7 	bl	8000c00 <HAL_GetTick>
 8001e32:	f894 3051 	ldrb.w	r3, [r4, #81]	; 0x51
 8001e36:	4680      	mov	r8, r0
 8001e38:	2b01      	cmp	r3, #1
 8001e3a:	b2d8      	uxtb	r0, r3
 8001e3c:	f040 8092 	bne.w	8001f64 <HAL_SPI_Transmit+0x152>
 8001e40:	2d00      	cmp	r5, #0
 8001e42:	d05d      	beq.n	8001f00 <HAL_SPI_Transmit+0xee>
 8001e44:	2f00      	cmp	r7, #0
 8001e46:	d05b      	beq.n	8001f00 <HAL_SPI_Transmit+0xee>
 8001e48:	2303      	movs	r3, #3
 8001e4a:	f884 3051 	strb.w	r3, [r4, #81]	; 0x51
 8001e4e:	2300      	movs	r3, #0
 8001e50:	68a2      	ldr	r2, [r4, #8]
 8001e52:	6563      	str	r3, [r4, #84]	; 0x54
 8001e54:	f5b2 4f00 	cmp.w	r2, #32768	; 0x8000
 8001e58:	e9c4 3310 	strd	r3, r3, [r4, #64]	; 0x40
 8001e5c:	86e7      	strh	r7, [r4, #54]	; 0x36
 8001e5e:	63a3      	str	r3, [r4, #56]	; 0x38
 8001e60:	87a3      	strh	r3, [r4, #60]	; 0x3c
 8001e62:	87e3      	strh	r3, [r4, #62]	; 0x3e
 8001e64:	6325      	str	r5, [r4, #48]	; 0x30
 8001e66:	6823      	ldr	r3, [r4, #0]
 8001e68:	86a7      	strh	r7, [r4, #52]	; 0x34
 8001e6a:	d107      	bne.n	8001e7c <HAL_SPI_Transmit+0x6a>
 8001e6c:	681a      	ldr	r2, [r3, #0]
 8001e6e:	f022 0240 	bic.w	r2, r2, #64	; 0x40
 8001e72:	601a      	str	r2, [r3, #0]
 8001e74:	681a      	ldr	r2, [r3, #0]
 8001e76:	f442 4280 	orr.w	r2, r2, #16384	; 0x4000
 8001e7a:	601a      	str	r2, [r3, #0]
 8001e7c:	681a      	ldr	r2, [r3, #0]
 8001e7e:	68e1      	ldr	r1, [r4, #12]
 8001e80:	0652      	lsls	r2, r2, #25
 8001e82:	bf5e      	ittt	pl
 8001e84:	681a      	ldrpl	r2, [r3, #0]
 8001e86:	f042 0240 	orrpl.w	r2, r2, #64	; 0x40
 8001e8a:	601a      	strpl	r2, [r3, #0]
 8001e8c:	f5b1 6f00 	cmp.w	r1, #2048	; 0x800
 8001e90:	6862      	ldr	r2, [r4, #4]
 8001e92:	d141      	bne.n	8001f18 <HAL_SPI_Transmit+0x106>
 8001e94:	b10a      	cbz	r2, 8001e9a <HAL_SPI_Transmit+0x88>
 8001e96:	2f01      	cmp	r7, #1
 8001e98:	d107      	bne.n	8001eaa <HAL_SPI_Transmit+0x98>
 8001e9a:	f835 2b02 	ldrh.w	r2, [r5], #2
 8001e9e:	60da      	str	r2, [r3, #12]
 8001ea0:	6325      	str	r5, [r4, #48]	; 0x30
 8001ea2:	8ee3      	ldrh	r3, [r4, #54]	; 0x36
 8001ea4:	3b01      	subs	r3, #1
 8001ea6:	b29b      	uxth	r3, r3
 8001ea8:	86e3      	strh	r3, [r4, #54]	; 0x36
 8001eaa:	8ee3      	ldrh	r3, [r4, #54]	; 0x36
 8001eac:	b29b      	uxth	r3, r3
 8001eae:	b9a3      	cbnz	r3, 8001eda <HAL_SPI_Transmit+0xc8>
 8001eb0:	4642      	mov	r2, r8
 8001eb2:	4631      	mov	r1, r6
 8001eb4:	4620      	mov	r0, r4
 8001eb6:	f7ff ff46 	bl	8001d46 <SPI_EndRxTxTransaction>
 8001eba:	2800      	cmp	r0, #0
 8001ebc:	d14f      	bne.n	8001f5e <HAL_SPI_Transmit+0x14c>
 8001ebe:	68a3      	ldr	r3, [r4, #8]
 8001ec0:	b933      	cbnz	r3, 8001ed0 <HAL_SPI_Transmit+0xbe>
 8001ec2:	9301      	str	r3, [sp, #4]
 8001ec4:	6823      	ldr	r3, [r4, #0]
 8001ec6:	68da      	ldr	r2, [r3, #12]
 8001ec8:	9201      	str	r2, [sp, #4]
 8001eca:	689b      	ldr	r3, [r3, #8]
 8001ecc:	9301      	str	r3, [sp, #4]
 8001ece:	9b01      	ldr	r3, [sp, #4]
 8001ed0:	6d60      	ldr	r0, [r4, #84]	; 0x54
 8001ed2:	3800      	subs	r0, #0
 8001ed4:	bf18      	it	ne
 8001ed6:	2001      	movne	r0, #1
 8001ed8:	e012      	b.n	8001f00 <HAL_SPI_Transmit+0xee>
 8001eda:	6822      	ldr	r2, [r4, #0]
 8001edc:	6893      	ldr	r3, [r2, #8]
 8001ede:	0798      	lsls	r0, r3, #30
 8001ee0:	d505      	bpl.n	8001eee <HAL_SPI_Transmit+0xdc>
 8001ee2:	6b23      	ldr	r3, [r4, #48]	; 0x30
 8001ee4:	f833 1b02 	ldrh.w	r1, [r3], #2
 8001ee8:	60d1      	str	r1, [r2, #12]
 8001eea:	6323      	str	r3, [r4, #48]	; 0x30
 8001eec:	e7d9      	b.n	8001ea2 <HAL_SPI_Transmit+0x90>
 8001eee:	f7fe fe87 	bl	8000c00 <HAL_GetTick>
 8001ef2:	eba0 0008 	sub.w	r0, r0, r8
 8001ef6:	42b0      	cmp	r0, r6
 8001ef8:	d30b      	bcc.n	8001f12 <HAL_SPI_Transmit+0x100>
 8001efa:	1c71      	adds	r1, r6, #1
 8001efc:	d0d5      	beq.n	8001eaa <HAL_SPI_Transmit+0x98>
 8001efe:	2003      	movs	r0, #3
 8001f00:	2301      	movs	r3, #1
 8001f02:	f884 3051 	strb.w	r3, [r4, #81]	; 0x51
 8001f06:	2300      	movs	r3, #0
 8001f08:	f884 3050 	strb.w	r3, [r4, #80]	; 0x50
 8001f0c:	b002      	add	sp, #8
 8001f0e:	e8bd 81f0 	ldmia.w	sp!, {r4, r5, r6, r7, r8, pc}
 8001f12:	2e00      	cmp	r6, #0
 8001f14:	d1c9      	bne.n	8001eaa <HAL_SPI_Transmit+0x98>
 8001f16:	e7f2      	b.n	8001efe <HAL_SPI_Transmit+0xec>
 8001f18:	b10a      	cbz	r2, 8001f1e <HAL_SPI_Transmit+0x10c>
 8001f1a:	2f01      	cmp	r7, #1
 8001f1c:	d108      	bne.n	8001f30 <HAL_SPI_Transmit+0x11e>
 8001f1e:	782a      	ldrb	r2, [r5, #0]
 8001f20:	731a      	strb	r2, [r3, #12]
 8001f22:	6b23      	ldr	r3, [r4, #48]	; 0x30
 8001f24:	3301      	adds	r3, #1
 8001f26:	6323      	str	r3, [r4, #48]	; 0x30
 8001f28:	8ee3      	ldrh	r3, [r4, #54]	; 0x36
 8001f2a:	3b01      	subs	r3, #1
 8001f2c:	b29b      	uxth	r3, r3
 8001f2e:	86e3      	strh	r3, [r4, #54]	; 0x36
 8001f30:	8ee3      	ldrh	r3, [r4, #54]	; 0x36
 8001f32:	b29b      	uxth	r3, r3
 8001f34:	2b00      	cmp	r3, #0
 8001f36:	d0bb      	beq.n	8001eb0 <HAL_SPI_Transmit+0x9e>
 8001f38:	6823      	ldr	r3, [r4, #0]
 8001f3a:	689a      	ldr	r2, [r3, #8]
 8001f3c:	0792      	lsls	r2, r2, #30
 8001f3e:	d502      	bpl.n	8001f46 <HAL_SPI_Transmit+0x134>
 8001f40:	6b22      	ldr	r2, [r4, #48]	; 0x30
 8001f42:	7812      	ldrb	r2, [r2, #0]
 8001f44:	e7ec      	b.n	8001f20 <HAL_SPI_Transmit+0x10e>
 8001f46:	f7fe fe5b 	bl	8000c00 <HAL_GetTick>
 8001f4a:	eba0 0008 	sub.w	r0, r0, r8
 8001f4e:	42b0      	cmp	r0, r6
 8001f50:	d302      	bcc.n	8001f58 <HAL_SPI_Transmit+0x146>
 8001f52:	1c73      	adds	r3, r6, #1
 8001f54:	d0ec      	beq.n	8001f30 <HAL_SPI_Transmit+0x11e>
 8001f56:	e7d2      	b.n	8001efe <HAL_SPI_Transmit+0xec>
 8001f58:	2e00      	cmp	r6, #0
 8001f5a:	d1e9      	bne.n	8001f30 <HAL_SPI_Transmit+0x11e>
 8001f5c:	e7cf      	b.n	8001efe <HAL_SPI_Transmit+0xec>
 8001f5e:	2320      	movs	r3, #32
 8001f60:	6563      	str	r3, [r4, #84]	; 0x54
 8001f62:	e7ac      	b.n	8001ebe <HAL_SPI_Transmit+0xac>
 8001f64:	2002      	movs	r0, #2
 8001f66:	e7cb      	b.n	8001f00 <HAL_SPI_Transmit+0xee>
 8001f68:	2002      	movs	r0, #2
 8001f6a:	e7cf      	b.n	8001f0c <HAL_SPI_Transmit+0xfa>

08001f6c <HAL_SPI_TransmitReceive>:
 8001f6c:	e92d 43f7 	stmdb	sp!, {r0, r1, r2, r4, r5, r6, r7, r8, r9, lr}
 8001f70:	461e      	mov	r6, r3
 8001f72:	f890 3050 	ldrb.w	r3, [r0, #80]	; 0x50
 8001f76:	4604      	mov	r4, r0
 8001f78:	2b01      	cmp	r3, #1
 8001f7a:	460d      	mov	r5, r1
 8001f7c:	4691      	mov	r9, r2
 8001f7e:	9f0a      	ldr	r7, [sp, #40]	; 0x28
 8001f80:	f000 80e6 	beq.w	8002150 <HAL_SPI_TransmitReceive+0x1e4>
 8001f84:	2301      	movs	r3, #1
 8001f86:	f880 3050 	strb.w	r3, [r0, #80]	; 0x50
 8001f8a:	f7fe fe39 	bl	8000c00 <HAL_GetTick>
 8001f8e:	f894 3051 	ldrb.w	r3, [r4, #81]	; 0x51
 8001f92:	4680      	mov	r8, r0
 8001f94:	2b01      	cmp	r3, #1
 8001f96:	6862      	ldr	r2, [r4, #4]
 8001f98:	b2d9      	uxtb	r1, r3
 8001f9a:	d00a      	beq.n	8001fb2 <HAL_SPI_TransmitReceive+0x46>
 8001f9c:	f5b2 7f82 	cmp.w	r2, #260	; 0x104
 8001fa0:	f040 80d4 	bne.w	800214c <HAL_SPI_TransmitReceive+0x1e0>
 8001fa4:	68a3      	ldr	r3, [r4, #8]
 8001fa6:	2b00      	cmp	r3, #0
 8001fa8:	f040 80d0 	bne.w	800214c <HAL_SPI_TransmitReceive+0x1e0>
 8001fac:	2904      	cmp	r1, #4
 8001fae:	f040 80cd 	bne.w	800214c <HAL_SPI_TransmitReceive+0x1e0>
 8001fb2:	2d00      	cmp	r5, #0
 8001fb4:	d040      	beq.n	8002038 <HAL_SPI_TransmitReceive+0xcc>
 8001fb6:	f1b9 0f00 	cmp.w	r9, #0
 8001fba:	d03d      	beq.n	8002038 <HAL_SPI_TransmitReceive+0xcc>
 8001fbc:	2e00      	cmp	r6, #0
 8001fbe:	d03b      	beq.n	8002038 <HAL_SPI_TransmitReceive+0xcc>
 8001fc0:	f894 3051 	ldrb.w	r3, [r4, #81]	; 0x51
 8001fc4:	f8c4 9038 	str.w	r9, [r4, #56]	; 0x38
 8001fc8:	2b04      	cmp	r3, #4
 8001fca:	bf1c      	itt	ne
 8001fcc:	2305      	movne	r3, #5
 8001fce:	f884 3051 	strbne.w	r3, [r4, #81]	; 0x51
 8001fd2:	2300      	movs	r3, #0
 8001fd4:	6563      	str	r3, [r4, #84]	; 0x54
 8001fd6:	e9c4 3310 	strd	r3, r3, [r4, #64]	; 0x40
 8001fda:	6823      	ldr	r3, [r4, #0]
 8001fdc:	87e6      	strh	r6, [r4, #62]	; 0x3e
 8001fde:	86e6      	strh	r6, [r4, #54]	; 0x36
 8001fe0:	6819      	ldr	r1, [r3, #0]
 8001fe2:	87a6      	strh	r6, [r4, #60]	; 0x3c
 8001fe4:	0649      	lsls	r1, r1, #25
 8001fe6:	bf58      	it	pl
 8001fe8:	6819      	ldrpl	r1, [r3, #0]
 8001fea:	6325      	str	r5, [r4, #48]	; 0x30
 8001fec:	bf58      	it	pl
 8001fee:	f041 0140 	orrpl.w	r1, r1, #64	; 0x40
 8001ff2:	86a6      	strh	r6, [r4, #52]	; 0x34
 8001ff4:	bf58      	it	pl
 8001ff6:	6019      	strpl	r1, [r3, #0]
 8001ff8:	68e1      	ldr	r1, [r4, #12]
 8001ffa:	f5b1 6f00 	cmp.w	r1, #2048	; 0x800
 8001ffe:	d152      	bne.n	80020a6 <HAL_SPI_TransmitReceive+0x13a>
 8002000:	b10a      	cbz	r2, 8002006 <HAL_SPI_TransmitReceive+0x9a>
 8002002:	2e01      	cmp	r6, #1
 8002004:	d107      	bne.n	8002016 <HAL_SPI_TransmitReceive+0xaa>
 8002006:	f835 2b02 	ldrh.w	r2, [r5], #2
 800200a:	60da      	str	r2, [r3, #12]
 800200c:	8ee3      	ldrh	r3, [r4, #54]	; 0x36
 800200e:	6325      	str	r5, [r4, #48]	; 0x30
 8002010:	3b01      	subs	r3, #1
 8002012:	b29b      	uxth	r3, r3
 8002014:	86e3      	strh	r3, [r4, #54]	; 0x36
 8002016:	2501      	movs	r5, #1
 8002018:	8ee3      	ldrh	r3, [r4, #54]	; 0x36
 800201a:	b29b      	uxth	r3, r3
 800201c:	b973      	cbnz	r3, 800203c <HAL_SPI_TransmitReceive+0xd0>
 800201e:	8fe3      	ldrh	r3, [r4, #62]	; 0x3e
 8002020:	b29b      	uxth	r3, r3
 8002022:	b95b      	cbnz	r3, 800203c <HAL_SPI_TransmitReceive+0xd0>
 8002024:	4642      	mov	r2, r8
 8002026:	4639      	mov	r1, r7
 8002028:	4620      	mov	r0, r4
 800202a:	f7ff fe8c 	bl	8001d46 <SPI_EndRxTxTransaction>
 800202e:	2800      	cmp	r0, #0
 8002030:	f000 8081 	beq.w	8002136 <HAL_SPI_TransmitReceive+0x1ca>
 8002034:	2320      	movs	r3, #32
 8002036:	6563      	str	r3, [r4, #84]	; 0x54
 8002038:	2001      	movs	r0, #1
 800203a:	e02b      	b.n	8002094 <HAL_SPI_TransmitReceive+0x128>
 800203c:	6821      	ldr	r1, [r4, #0]
 800203e:	688b      	ldr	r3, [r1, #8]
 8002040:	079e      	lsls	r6, r3, #30
 8002042:	d50d      	bpl.n	8002060 <HAL_SPI_TransmitReceive+0xf4>
 8002044:	8ee3      	ldrh	r3, [r4, #54]	; 0x36
 8002046:	b29b      	uxth	r3, r3
 8002048:	b153      	cbz	r3, 8002060 <HAL_SPI_TransmitReceive+0xf4>
 800204a:	b14d      	cbz	r5, 8002060 <HAL_SPI_TransmitReceive+0xf4>
 800204c:	2500      	movs	r5, #0
 800204e:	6b23      	ldr	r3, [r4, #48]	; 0x30
 8002050:	f833 2b02 	ldrh.w	r2, [r3], #2
 8002054:	60ca      	str	r2, [r1, #12]
 8002056:	6323      	str	r3, [r4, #48]	; 0x30
 8002058:	8ee3      	ldrh	r3, [r4, #54]	; 0x36
 800205a:	3b01      	subs	r3, #1
 800205c:	b29b      	uxth	r3, r3
 800205e:	86e3      	strh	r3, [r4, #54]	; 0x36
 8002060:	688a      	ldr	r2, [r1, #8]
 8002062:	f012 0201 	ands.w	r2, r2, #1
 8002066:	d00c      	beq.n	8002082 <HAL_SPI_TransmitReceive+0x116>
 8002068:	8fe3      	ldrh	r3, [r4, #62]	; 0x3e
 800206a:	b29b      	uxth	r3, r3
 800206c:	b14b      	cbz	r3, 8002082 <HAL_SPI_TransmitReceive+0x116>
 800206e:	4615      	mov	r5, r2
 8002070:	68c9      	ldr	r1, [r1, #12]
 8002072:	6ba3      	ldr	r3, [r4, #56]	; 0x38
 8002074:	f823 1b02 	strh.w	r1, [r3], #2
 8002078:	63a3      	str	r3, [r4, #56]	; 0x38
 800207a:	8fe3      	ldrh	r3, [r4, #62]	; 0x3e
 800207c:	3b01      	subs	r3, #1
 800207e:	b29b      	uxth	r3, r3
 8002080:	87e3      	strh	r3, [r4, #62]	; 0x3e
 8002082:	f7fe fdbd 	bl	8000c00 <HAL_GetTick>
 8002086:	eba0 0008 	sub.w	r0, r0, r8
 800208a:	42b8      	cmp	r0, r7
 800208c:	d3c4      	bcc.n	8002018 <HAL_SPI_TransmitReceive+0xac>
 800208e:	1c78      	adds	r0, r7, #1
 8002090:	d0c2      	beq.n	8002018 <HAL_SPI_TransmitReceive+0xac>
 8002092:	2003      	movs	r0, #3
 8002094:	2301      	movs	r3, #1
 8002096:	f884 3051 	strb.w	r3, [r4, #81]	; 0x51
 800209a:	2300      	movs	r3, #0
 800209c:	f884 3050 	strb.w	r3, [r4, #80]	; 0x50
 80020a0:	b003      	add	sp, #12
 80020a2:	e8bd 83f0 	ldmia.w	sp!, {r4, r5, r6, r7, r8, r9, pc}
 80020a6:	b10a      	cbz	r2, 80020ac <HAL_SPI_TransmitReceive+0x140>
 80020a8:	2e01      	cmp	r6, #1
 80020aa:	d108      	bne.n	80020be <HAL_SPI_TransmitReceive+0x152>
 80020ac:	782a      	ldrb	r2, [r5, #0]
 80020ae:	731a      	strb	r2, [r3, #12]
 80020b0:	6b23      	ldr	r3, [r4, #48]	; 0x30
 80020b2:	3301      	adds	r3, #1
 80020b4:	6323      	str	r3, [r4, #48]	; 0x30
 80020b6:	8ee3      	ldrh	r3, [r4, #54]	; 0x36
 80020b8:	3b01      	subs	r3, #1
 80020ba:	b29b      	uxth	r3, r3
 80020bc:	86e3      	strh	r3, [r4, #54]	; 0x36
 80020be:	2501      	movs	r5, #1
 80020c0:	e02d      	b.n	800211e <HAL_SPI_TransmitReceive+0x1b2>
 80020c2:	6822      	ldr	r2, [r4, #0]
 80020c4:	6893      	ldr	r3, [r2, #8]
 80020c6:	0799      	lsls	r1, r3, #30
 80020c8:	d50e      	bpl.n	80020e8 <HAL_SPI_TransmitReceive+0x17c>
 80020ca:	8ee3      	ldrh	r3, [r4, #54]	; 0x36
 80020cc:	b29b      	uxth	r3, r3
 80020ce:	b15b      	cbz	r3, 80020e8 <HAL_SPI_TransmitReceive+0x17c>
 80020d0:	b155      	cbz	r5, 80020e8 <HAL_SPI_TransmitReceive+0x17c>
 80020d2:	2500      	movs	r5, #0
 80020d4:	6b23      	ldr	r3, [r4, #48]	; 0x30
 80020d6:	781b      	ldrb	r3, [r3, #0]
 80020d8:	7313      	strb	r3, [r2, #12]
 80020da:	6b23      	ldr	r3, [r4, #48]	; 0x30
 80020dc:	3301      	adds	r3, #1
 80020de:	6323      	str	r3, [r4, #48]	; 0x30
 80020e0:	8ee3      	ldrh	r3, [r4, #54]	; 0x36
 80020e2:	3b01      	subs	r3, #1
 80020e4:	b29b      	uxth	r3, r3
 80020e6:	86e3      	strh	r3, [r4, #54]	; 0x36
 80020e8:	6822      	ldr	r2, [r4, #0]
 80020ea:	6891      	ldr	r1, [r2, #8]
 80020ec:	f011 0101 	ands.w	r1, r1, #1
 80020f0:	d00d      	beq.n	800210e <HAL_SPI_TransmitReceive+0x1a2>
 80020f2:	8fe3      	ldrh	r3, [r4, #62]	; 0x3e
 80020f4:	b29b      	uxth	r3, r3
 80020f6:	b153      	cbz	r3, 800210e <HAL_SPI_TransmitReceive+0x1a2>
 80020f8:	460d      	mov	r5, r1
 80020fa:	68d2      	ldr	r2, [r2, #12]
 80020fc:	6ba3      	ldr	r3, [r4, #56]	; 0x38
 80020fe:	701a      	strb	r2, [r3, #0]
 8002100:	6ba3      	ldr	r3, [r4, #56]	; 0x38
 8002102:	3301      	adds	r3, #1
 8002104:	63a3      	str	r3, [r4, #56]	; 0x38
 8002106:	8fe3      	ldrh	r3, [r4, #62]	; 0x3e
 8002108:	3b01      	subs	r3, #1
 800210a:	b29b      	uxth	r3, r3
 800210c:	87e3      	strh	r3, [r4, #62]	; 0x3e
 800210e:	f7fe fd77 	bl	8000c00 <HAL_GetTick>
 8002112:	eba0 0008 	sub.w	r0, r0, r8
 8002116:	42b8      	cmp	r0, r7
 8002118:	d30a      	bcc.n	8002130 <HAL_SPI_TransmitReceive+0x1c4>
 800211a:	1c7b      	adds	r3, r7, #1
 800211c:	d1b9      	bne.n	8002092 <HAL_SPI_TransmitReceive+0x126>
 800211e:	8ee3      	ldrh	r3, [r4, #54]	; 0x36
 8002120:	b29b      	uxth	r3, r3
 8002122:	2b00      	cmp	r3, #0
 8002124:	d1cd      	bne.n	80020c2 <HAL_SPI_TransmitReceive+0x156>
 8002126:	8fe3      	ldrh	r3, [r4, #62]	; 0x3e
 8002128:	b29b      	uxth	r3, r3
 800212a:	2b00      	cmp	r3, #0
 800212c:	d1c9      	bne.n	80020c2 <HAL_SPI_TransmitReceive+0x156>
 800212e:	e779      	b.n	8002024 <HAL_SPI_TransmitReceive+0xb8>
 8002130:	2f00      	cmp	r7, #0
 8002132:	d1f4      	bne.n	800211e <HAL_SPI_TransmitReceive+0x1b2>
 8002134:	e7ad      	b.n	8002092 <HAL_SPI_TransmitReceive+0x126>
 8002136:	68a3      	ldr	r3, [r4, #8]
 8002138:	2b00      	cmp	r3, #0
 800213a:	d1ab      	bne.n	8002094 <HAL_SPI_TransmitReceive+0x128>
 800213c:	6823      	ldr	r3, [r4, #0]
 800213e:	9001      	str	r0, [sp, #4]
 8002140:	68da      	ldr	r2, [r3, #12]
 8002142:	9201      	str	r2, [sp, #4]
 8002144:	689b      	ldr	r3, [r3, #8]
 8002146:	9301      	str	r3, [sp, #4]
 8002148:	9b01      	ldr	r3, [sp, #4]
 800214a:	e7a3      	b.n	8002094 <HAL_SPI_TransmitReceive+0x128>
 800214c:	2002      	movs	r0, #2
 800214e:	e7a1      	b.n	8002094 <HAL_SPI_TransmitReceive+0x128>
 8002150:	2002      	movs	r0, #2
 8002152:	e7a5      	b.n	80020a0 <HAL_SPI_TransmitReceive+0x134>

08002154 <HAL_SPI_Receive>:
 8002154:	e92d 43f7 	stmdb	sp!, {r0, r1, r2, r4, r5, r6, r7, r8, r9, lr}
 8002158:	461d      	mov	r5, r3
 800215a:	6843      	ldr	r3, [r0, #4]
 800215c:	4604      	mov	r4, r0
 800215e:	f5b3 7f82 	cmp.w	r3, #260	; 0x104
 8002162:	4689      	mov	r9, r1
 8002164:	4617      	mov	r7, r2
 8002166:	d10c      	bne.n	8002182 <HAL_SPI_Receive+0x2e>
 8002168:	6883      	ldr	r3, [r0, #8]
 800216a:	b953      	cbnz	r3, 8002182 <HAL_SPI_Receive+0x2e>
 800216c:	2304      	movs	r3, #4
 800216e:	f880 3051 	strb.w	r3, [r0, #81]	; 0x51
 8002172:	4613      	mov	r3, r2
 8002174:	9500      	str	r5, [sp, #0]
 8002176:	460a      	mov	r2, r1
 8002178:	f7ff fef8 	bl	8001f6c <HAL_SPI_TransmitReceive>
 800217c:	b003      	add	sp, #12
 800217e:	e8bd 83f0 	ldmia.w	sp!, {r4, r5, r6, r7, r8, r9, pc}
 8002182:	f894 3050 	ldrb.w	r3, [r4, #80]	; 0x50
 8002186:	2b01      	cmp	r3, #1
 8002188:	f000 8086 	beq.w	8002298 <HAL_SPI_Receive+0x144>
 800218c:	2301      	movs	r3, #1
 800218e:	f884 3050 	strb.w	r3, [r4, #80]	; 0x50
 8002192:	f7fe fd35 	bl	8000c00 <HAL_GetTick>
 8002196:	f894 3051 	ldrb.w	r3, [r4, #81]	; 0x51
 800219a:	4680      	mov	r8, r0
 800219c:	2b01      	cmp	r3, #1
 800219e:	b2d8      	uxtb	r0, r3
 80021a0:	d178      	bne.n	8002294 <HAL_SPI_Receive+0x140>
 80021a2:	f1b9 0f00 	cmp.w	r9, #0
 80021a6:	d05c      	beq.n	8002262 <HAL_SPI_Receive+0x10e>
 80021a8:	2f00      	cmp	r7, #0
 80021aa:	d05a      	beq.n	8002262 <HAL_SPI_Receive+0x10e>
 80021ac:	2600      	movs	r6, #0
 80021ae:	2304      	movs	r3, #4
 80021b0:	68a2      	ldr	r2, [r4, #8]
 80021b2:	f884 3051 	strb.w	r3, [r4, #81]	; 0x51
 80021b6:	f5b2 4f00 	cmp.w	r2, #32768	; 0x8000
 80021ba:	6566      	str	r6, [r4, #84]	; 0x54
 80021bc:	e9c4 6610 	strd	r6, r6, [r4, #64]	; 0x40
 80021c0:	87e7      	strh	r7, [r4, #62]	; 0x3e
 80021c2:	6823      	ldr	r3, [r4, #0]
 80021c4:	f8c4 9038 	str.w	r9, [r4, #56]	; 0x38
 80021c8:	87a7      	strh	r7, [r4, #60]	; 0x3c
 80021ca:	6326      	str	r6, [r4, #48]	; 0x30
 80021cc:	86a6      	strh	r6, [r4, #52]	; 0x34
 80021ce:	86e6      	strh	r6, [r4, #54]	; 0x36
 80021d0:	d107      	bne.n	80021e2 <HAL_SPI_Receive+0x8e>
 80021d2:	681a      	ldr	r2, [r3, #0]
 80021d4:	f022 0240 	bic.w	r2, r2, #64	; 0x40
 80021d8:	601a      	str	r2, [r3, #0]
 80021da:	681a      	ldr	r2, [r3, #0]
 80021dc:	f422 4280 	bic.w	r2, r2, #16384	; 0x4000
 80021e0:	601a      	str	r2, [r3, #0]
 80021e2:	681a      	ldr	r2, [r3, #0]
 80021e4:	0656      	lsls	r6, r2, #25
 80021e6:	bf5e      	ittt	pl
 80021e8:	681a      	ldrpl	r2, [r3, #0]
 80021ea:	f042 0240 	orrpl.w	r2, r2, #64	; 0x40
 80021ee:	601a      	strpl	r2, [r3, #0]
 80021f0:	68e3      	ldr	r3, [r4, #12]
 80021f2:	b1f3      	cbz	r3, 8002232 <HAL_SPI_Receive+0xde>
 80021f4:	8fe3      	ldrh	r3, [r4, #62]	; 0x3e
 80021f6:	b29b      	uxth	r3, r3
 80021f8:	b1fb      	cbz	r3, 800223a <HAL_SPI_Receive+0xe6>
 80021fa:	6823      	ldr	r3, [r4, #0]
 80021fc:	689a      	ldr	r2, [r3, #8]
 80021fe:	07d2      	lsls	r2, r2, #31
 8002200:	d539      	bpl.n	8002276 <HAL_SPI_Receive+0x122>
 8002202:	68da      	ldr	r2, [r3, #12]
 8002204:	6ba3      	ldr	r3, [r4, #56]	; 0x38
 8002206:	f823 2b02 	strh.w	r2, [r3], #2
 800220a:	63a3      	str	r3, [r4, #56]	; 0x38
 800220c:	8fe3      	ldrh	r3, [r4, #62]	; 0x3e
 800220e:	3b01      	subs	r3, #1
 8002210:	b29b      	uxth	r3, r3
 8002212:	87e3      	strh	r3, [r4, #62]	; 0x3e
 8002214:	e7ee      	b.n	80021f4 <HAL_SPI_Receive+0xa0>
 8002216:	6823      	ldr	r3, [r4, #0]
 8002218:	689a      	ldr	r2, [r3, #8]
 800221a:	07d0      	lsls	r0, r2, #31
 800221c:	d518      	bpl.n	8002250 <HAL_SPI_Receive+0xfc>
 800221e:	7b1b      	ldrb	r3, [r3, #12]
 8002220:	6ba2      	ldr	r2, [r4, #56]	; 0x38
 8002222:	7013      	strb	r3, [r2, #0]
 8002224:	6ba3      	ldr	r3, [r4, #56]	; 0x38
 8002226:	3301      	adds	r3, #1
 8002228:	63a3      	str	r3, [r4, #56]	; 0x38
 800222a:	8fe3      	ldrh	r3, [r4, #62]	; 0x3e
 800222c:	3b01      	subs	r3, #1
 800222e:	b29b      	uxth	r3, r3
 8002230:	87e3      	strh	r3, [r4, #62]	; 0x3e
 8002232:	8fe3      	ldrh	r3, [r4, #62]	; 0x3e
 8002234:	b29b      	uxth	r3, r3
 8002236:	2b00      	cmp	r3, #0
 8002238:	d1ed      	bne.n	8002216 <HAL_SPI_Receive+0xc2>
 800223a:	4642      	mov	r2, r8
 800223c:	4629      	mov	r1, r5
 800223e:	4620      	mov	r0, r4
 8002240:	f7ff fd5a 	bl	8001cf8 <SPI_EndRxTransaction>
 8002244:	bb18      	cbnz	r0, 800228e <HAL_SPI_Receive+0x13a>
 8002246:	6d60      	ldr	r0, [r4, #84]	; 0x54
 8002248:	3800      	subs	r0, #0
 800224a:	bf18      	it	ne
 800224c:	2001      	movne	r0, #1
 800224e:	e008      	b.n	8002262 <HAL_SPI_Receive+0x10e>
 8002250:	f7fe fcd6 	bl	8000c00 <HAL_GetTick>
 8002254:	eba0 0008 	sub.w	r0, r0, r8
 8002258:	42a8      	cmp	r0, r5
 800225a:	d309      	bcc.n	8002270 <HAL_SPI_Receive+0x11c>
 800225c:	1c69      	adds	r1, r5, #1
 800225e:	d0e8      	beq.n	8002232 <HAL_SPI_Receive+0xde>
 8002260:	2003      	movs	r0, #3
 8002262:	2301      	movs	r3, #1
 8002264:	f884 3051 	strb.w	r3, [r4, #81]	; 0x51
 8002268:	2300      	movs	r3, #0
 800226a:	f884 3050 	strb.w	r3, [r4, #80]	; 0x50
 800226e:	e785      	b.n	800217c <HAL_SPI_Receive+0x28>
 8002270:	2d00      	cmp	r5, #0
 8002272:	d1de      	bne.n	8002232 <HAL_SPI_Receive+0xde>
 8002274:	e7f4      	b.n	8002260 <HAL_SPI_Receive+0x10c>
 8002276:	f7fe fcc3 	bl	8000c00 <HAL_GetTick>
 800227a:	eba0 0008 	sub.w	r0, r0, r8
 800227e:	42a8      	cmp	r0, r5
 8002280:	d302      	bcc.n	8002288 <HAL_SPI_Receive+0x134>
 8002282:	1c6b      	adds	r3, r5, #1
 8002284:	d0b6      	beq.n	80021f4 <HAL_SPI_Receive+0xa0>
 8002286:	e7eb      	b.n	8002260 <HAL_SPI_Receive+0x10c>
 8002288:	2d00      	cmp	r5, #0
 800228a:	d1b3      	bne.n	80021f4 <HAL_SPI_Receive+0xa0>
 800228c:	e7e8      	b.n	8002260 <HAL_SPI_Receive+0x10c>
 800228e:	2320      	movs	r3, #32
 8002290:	6563      	str	r3, [r4, #84]	; 0x54
 8002292:	e7d8      	b.n	8002246 <HAL_SPI_Receive+0xf2>
 8002294:	2002      	movs	r0, #2
 8002296:	e7e4      	b.n	8002262 <HAL_SPI_Receive+0x10e>
 8002298:	2002      	movs	r0, #2
 800229a:	e76f      	b.n	800217c <HAL_SPI_Receive+0x28>

0800229c <HAL_SPI_Transmit_DMA>:
 800229c:	b538      	push	{r3, r4, r5, lr}
 800229e:	f890 3050 	ldrb.w	r3, [r0, #80]	; 0x50
 80022a2:	4604      	mov	r4, r0
 80022a4:	2b01      	cmp	r3, #1
 80022a6:	d054      	beq.n	8002352 <HAL_SPI_Transmit_DMA+0xb6>
 80022a8:	2301      	movs	r3, #1
 80022aa:	f880 3050 	strb.w	r3, [r0, #80]	; 0x50
 80022ae:	f890 3051 	ldrb.w	r3, [r0, #81]	; 0x51
 80022b2:	2b01      	cmp	r3, #1
 80022b4:	b2dd      	uxtb	r5, r3
 80022b6:	d14a      	bne.n	800234e <HAL_SPI_Transmit_DMA+0xb2>
 80022b8:	2900      	cmp	r1, #0
 80022ba:	d031      	beq.n	8002320 <HAL_SPI_Transmit_DMA+0x84>
 80022bc:	2a00      	cmp	r2, #0
 80022be:	d02f      	beq.n	8002320 <HAL_SPI_Transmit_DMA+0x84>
 80022c0:	2303      	movs	r3, #3
 80022c2:	f880 3051 	strb.w	r3, [r0, #81]	; 0x51
 80022c6:	2300      	movs	r3, #0
 80022c8:	6543      	str	r3, [r0, #84]	; 0x54
 80022ca:	e9c0 3310 	strd	r3, r3, [r0, #64]	; 0x40
 80022ce:	86c2      	strh	r2, [r0, #54]	; 0x36
 80022d0:	6383      	str	r3, [r0, #56]	; 0x38
 80022d2:	8783      	strh	r3, [r0, #60]	; 0x3c
 80022d4:	87c3      	strh	r3, [r0, #62]	; 0x3e
 80022d6:	6883      	ldr	r3, [r0, #8]
 80022d8:	8682      	strh	r2, [r0, #52]	; 0x34
 80022da:	f5b3 4f00 	cmp.w	r3, #32768	; 0x8000
 80022de:	6802      	ldr	r2, [r0, #0]
 80022e0:	6301      	str	r1, [r0, #48]	; 0x30
 80022e2:	d107      	bne.n	80022f4 <HAL_SPI_Transmit_DMA+0x58>
 80022e4:	6813      	ldr	r3, [r2, #0]
 80022e6:	f023 0340 	bic.w	r3, r3, #64	; 0x40
 80022ea:	6013      	str	r3, [r2, #0]
 80022ec:	6813      	ldr	r3, [r2, #0]
 80022ee:	f443 4380 	orr.w	r3, r3, #16384	; 0x4000
 80022f2:	6013      	str	r3, [r2, #0]
 80022f4:	6ca0      	ldr	r0, [r4, #72]	; 0x48
 80022f6:	4b18      	ldr	r3, [pc, #96]	; (8002358 <HAL_SPI_Transmit_DMA+0xbc>)
 80022f8:	320c      	adds	r2, #12
 80022fa:	62c3      	str	r3, [r0, #44]	; 0x2c
 80022fc:	4b17      	ldr	r3, [pc, #92]	; (800235c <HAL_SPI_Transmit_DMA+0xc0>)
 80022fe:	6283      	str	r3, [r0, #40]	; 0x28
 8002300:	4b17      	ldr	r3, [pc, #92]	; (8002360 <HAL_SPI_Transmit_DMA+0xc4>)
 8002302:	6303      	str	r3, [r0, #48]	; 0x30
 8002304:	2300      	movs	r3, #0
 8002306:	6343      	str	r3, [r0, #52]	; 0x34
 8002308:	8ee3      	ldrh	r3, [r4, #54]	; 0x36
 800230a:	b29b      	uxth	r3, r3
 800230c:	f7fe fcf6 	bl	8000cfc <HAL_DMA_Start_IT>
 8002310:	b158      	cbz	r0, 800232a <HAL_SPI_Transmit_DMA+0x8e>
 8002312:	6d63      	ldr	r3, [r4, #84]	; 0x54
 8002314:	f043 0310 	orr.w	r3, r3, #16
 8002318:	6563      	str	r3, [r4, #84]	; 0x54
 800231a:	2301      	movs	r3, #1
 800231c:	f884 3051 	strb.w	r3, [r4, #81]	; 0x51
 8002320:	2300      	movs	r3, #0
 8002322:	f884 3050 	strb.w	r3, [r4, #80]	; 0x50
 8002326:	4628      	mov	r0, r5
 8002328:	bd38      	pop	{r3, r4, r5, pc}
 800232a:	6823      	ldr	r3, [r4, #0]
 800232c:	2500      	movs	r5, #0
 800232e:	681a      	ldr	r2, [r3, #0]
 8002330:	0652      	lsls	r2, r2, #25
 8002332:	bf5e      	ittt	pl
 8002334:	681a      	ldrpl	r2, [r3, #0]
 8002336:	f042 0240 	orrpl.w	r2, r2, #64	; 0x40
 800233a:	601a      	strpl	r2, [r3, #0]
 800233c:	685a      	ldr	r2, [r3, #4]
 800233e:	f042 0220 	orr.w	r2, r2, #32
 8002342:	605a      	str	r2, [r3, #4]
 8002344:	685a      	ldr	r2, [r3, #4]
 8002346:	f042 0202 	orr.w	r2, r2, #2
 800234a:	605a      	str	r2, [r3, #4]
 800234c:	e7e8      	b.n	8002320 <HAL_SPI_Transmit_DMA+0x84>
 800234e:	2502      	movs	r5, #2
 8002350:	e7e6      	b.n	8002320 <HAL_SPI_Transmit_DMA+0x84>
 8002352:	2502      	movs	r5, #2
 8002354:	e7e7      	b.n	8002326 <HAL_SPI_Transmit_DMA+0x8a>
 8002356:	bf00      	nop
 8002358:	08002369 	.word	0x08002369
 800235c:	08002397 	.word	0x08002397
 8002360:	08002375 	.word	0x08002375

08002364 <HAL_SPI_TxCpltCallback>:
 8002364:	4770      	bx	lr

08002366 <HAL_SPI_TxHalfCpltCallback>:
 8002366:	4770      	bx	lr

08002368 <SPI_DMAHalfTransmitCplt>:
 8002368:	b508      	push	{r3, lr}
 800236a:	6a40      	ldr	r0, [r0, #36]	; 0x24
 800236c:	f7ff fffb 	bl	8002366 <HAL_SPI_TxHalfCpltCallback>
 8002370:	bd08      	pop	{r3, pc}

08002372 <HAL_SPI_ErrorCallback>:
 8002372:	4770      	bx	lr

08002374 <SPI_DMAError>:
 8002374:	6a40      	ldr	r0, [r0, #36]	; 0x24
 8002376:	b508      	push	{r3, lr}
 8002378:	6802      	ldr	r2, [r0, #0]
 800237a:	6853      	ldr	r3, [r2, #4]
 800237c:	f023 0303 	bic.w	r3, r3, #3
 8002380:	6053      	str	r3, [r2, #4]
 8002382:	6d43      	ldr	r3, [r0, #84]	; 0x54
 8002384:	f043 0310 	orr.w	r3, r3, #16
 8002388:	6543      	str	r3, [r0, #84]	; 0x54
 800238a:	2301      	movs	r3, #1
 800238c:	f880 3051 	strb.w	r3, [r0, #81]	; 0x51
 8002390:	f7ff ffef 	bl	8002372 <HAL_SPI_ErrorCallback>
 8002394:	bd08      	pop	{r3, pc}

08002396 <SPI_DMATransmitCplt>:
 8002396:	b537      	push	{r0, r1, r2, r4, r5, lr}
 8002398:	4605      	mov	r5, r0
 800239a:	6a44      	ldr	r4, [r0, #36]	; 0x24
 800239c:	f7fe fc30 	bl	8000c00 <HAL_GetTick>
 80023a0:	682b      	ldr	r3, [r5, #0]
 80023a2:	4602      	mov	r2, r0
 80023a4:	681b      	ldr	r3, [r3, #0]
 80023a6:	069b      	lsls	r3, r3, #26
 80023a8:	d426      	bmi.n	80023f8 <SPI_DMATransmitCplt+0x62>
 80023aa:	6823      	ldr	r3, [r4, #0]
 80023ac:	4620      	mov	r0, r4
 80023ae:	6859      	ldr	r1, [r3, #4]
 80023b0:	f021 0120 	bic.w	r1, r1, #32
 80023b4:	6059      	str	r1, [r3, #4]
 80023b6:	6859      	ldr	r1, [r3, #4]
 80023b8:	f021 0102 	bic.w	r1, r1, #2
 80023bc:	6059      	str	r1, [r3, #4]
 80023be:	2164      	movs	r1, #100	; 0x64
 80023c0:	f7ff fcc1 	bl	8001d46 <SPI_EndRxTxTransaction>
 80023c4:	b118      	cbz	r0, 80023ce <SPI_DMATransmitCplt+0x38>
 80023c6:	6d63      	ldr	r3, [r4, #84]	; 0x54
 80023c8:	f043 0320 	orr.w	r3, r3, #32
 80023cc:	6563      	str	r3, [r4, #84]	; 0x54
 80023ce:	68a3      	ldr	r3, [r4, #8]
 80023d0:	b933      	cbnz	r3, 80023e0 <SPI_DMATransmitCplt+0x4a>
 80023d2:	9301      	str	r3, [sp, #4]
 80023d4:	6823      	ldr	r3, [r4, #0]
 80023d6:	68da      	ldr	r2, [r3, #12]
 80023d8:	9201      	str	r2, [sp, #4]
 80023da:	689b      	ldr	r3, [r3, #8]
 80023dc:	9301      	str	r3, [sp, #4]
 80023de:	9b01      	ldr	r3, [sp, #4]
 80023e0:	2300      	movs	r3, #0
 80023e2:	86e3      	strh	r3, [r4, #54]	; 0x36
 80023e4:	2301      	movs	r3, #1
 80023e6:	f884 3051 	strb.w	r3, [r4, #81]	; 0x51
 80023ea:	6d63      	ldr	r3, [r4, #84]	; 0x54
 80023ec:	b123      	cbz	r3, 80023f8 <SPI_DMATransmitCplt+0x62>
 80023ee:	4620      	mov	r0, r4
 80023f0:	f7ff ffbf 	bl	8002372 <HAL_SPI_ErrorCallback>
 80023f4:	b003      	add	sp, #12
 80023f6:	bd30      	pop	{r4, r5, pc}
 80023f8:	4620      	mov	r0, r4
 80023fa:	f7ff ffb3 	bl	8002364 <HAL_SPI_TxCpltCallback>
 80023fe:	e7f9      	b.n	80023f4 <SPI_DMATransmitCplt+0x5e>

08002400 <__libc_init_array>:
 8002400:	b570      	push	{r4, r5, r6, lr}
 8002402:	2600      	movs	r6, #0
 8002404:	4d0c      	ldr	r5, [pc, #48]	; (8002438 <__libc_init_array+0x38>)
 8002406:	4c0d      	ldr	r4, [pc, #52]	; (800243c <__libc_init_array+0x3c>)
 8002408:	1b64      	subs	r4, r4, r5
 800240a:	10a4      	asrs	r4, r4, #2
 800240c:	42a6      	cmp	r6, r4
 800240e:	d109      	bne.n	8002424 <__libc_init_array+0x24>
 8002410:	f000 f822 	bl	8002458 <_init>
 8002414:	2600      	movs	r6, #0
 8002416:	4d0a      	ldr	r5, [pc, #40]	; (8002440 <__libc_init_array+0x40>)
 8002418:	4c0a      	ldr	r4, [pc, #40]	; (8002444 <__libc_init_array+0x44>)
 800241a:	1b64      	subs	r4, r4, r5
 800241c:	10a4      	asrs	r4, r4, #2
 800241e:	42a6      	cmp	r6, r4
 8002420:	d105      	bne.n	800242e <__libc_init_array+0x2e>
 8002422:	bd70      	pop	{r4, r5, r6, pc}
 8002424:	f855 3b04 	ldr.w	r3, [r5], #4
 8002428:	4798      	blx	r3
 800242a:	3601      	adds	r6, #1
 800242c:	e7ee      	b.n	800240c <__libc_init_array+0xc>
 800242e:	f855 3b04 	ldr.w	r3, [r5], #4
 8002432:	4798      	blx	r3
 8002434:	3601      	adds	r6, #1
 8002436:	e7f2      	b.n	800241e <__libc_init_array+0x1e>
 8002438:	080024ac 	.word	0x080024ac
 800243c:	080024ac 	.word	0x080024ac
 8002440:	080024ac 	.word	0x080024ac
 8002444:	080024b0 	.word	0x080024b0

08002448 <memset>:
 8002448:	4603      	mov	r3, r0
 800244a:	4402      	add	r2, r0
 800244c:	4293      	cmp	r3, r2
 800244e:	d100      	bne.n	8002452 <memset+0xa>
 8002450:	4770      	bx	lr
 8002452:	f803 1b01 	strb.w	r1, [r3], #1
 8002456:	e7f9      	b.n	800244c <memset+0x4>

08002458 <_init>:
 8002458:	b5f8      	push	{r3, r4, r5, r6, r7, lr}
 800245a:	bf00      	nop
 800245c:	bcf8      	pop	{r3, r4, r5, r6, r7}
 800245e:	bc08      	pop	{r3}
 8002460:	469e      	mov	lr, r3
 8002462:	4770      	bx	lr

08002464 <_fini>:
 8002464:	b5f8      	push	{r3, r4, r5, r6, r7, lr}
 8002466:	bf00      	nop
 8002468:	bcf8      	pop	{r3, r4, r5, r6, r7}
 800246a:	bc08      	pop	{r3}
 800246c:	469e      	mov	lr, r3
 800246e:	4770      	bx	lr
